///////////////////////////////////////////////////////////////////////////////
//
// IAR ANSI C/C++ Compiler V7.40.3.8902/W32 for ARM       27/Jul/2016  11:28:37
// Copyright 1999-2015 IAR Systems AB.
//
//    Cpu mode     =  thumb
//    Endian       =  little
//    Source file  =  
//        D:\Study\2016µÁ◊”…Ëº∆¥Û»¸\Ti\µÁ»¸±∏”√µ◊≤„\Board\src\VCAN_OLED.c
//    Command line =  
//        D:\Study\2016µÁ◊”…Ëº∆¥Û»¸\Ti\µÁ»¸±∏”√µ◊≤„\Board\src\VCAN_OLED.c -D
//        DEBUG -D ARM_MATH_CM4 -D MK60DZ10 -lCN
//        D:\Study\2016µÁ◊”…Ëº∆¥Û»¸\Ti\µÁ»¸±∏”√µ◊≤„\Prj\IAR\DZ10_Debug\List\
//        -lB
//        D:\Study\2016µÁ◊”…Ëº∆¥Û»¸\Ti\µÁ»¸±∏”√µ◊≤„\Prj\IAR\DZ10_Debug\List\ -o
//        D:\Study\2016µÁ◊”…Ëº∆¥Û»¸\Ti\µÁ»¸±∏”√µ◊≤„\Prj\IAR\DZ10_Debug\Obj\
//        --no_cse --no_unroll --no_inline --no_code_motion --no_tbaa
//        --no_clustering --no_scheduling --debug --endian=little
//        --cpu=Cortex-M4 -e --fpu=None --dlib_config "E:\IAR for
//        ARM\arm\INC\c\DLib_Config_Full.h" -I
//        D:\Study\2016µÁ◊”…Ëº∆¥Û»¸\Ti\µÁ»¸±∏”√µ◊≤„\Prj\IAR\..\..\App\ -I
//        D:\Study\2016µÁ◊”…Ëº∆¥Û»¸\Ti\µÁ»¸±∏”√µ◊≤„\Prj\IAR\..\..\App\Inc\ -I
//        D:\Study\2016µÁ◊”…Ëº∆¥Û»¸\Ti\µÁ»¸±∏”√µ◊≤„\Prj\IAR\..\..\Board\Inc\ -I
//        D:\Study\2016µÁ◊”…Ëº∆¥Û»¸\Ti\µÁ»¸±∏”√µ◊≤„\Prj\IAR\..\..\Chip\inc\ -I
//        D:\Study\2016µÁ◊”…Ëº∆¥Û»¸\Ti\µÁ»¸±∏”√µ◊≤„\Prj\IAR\..\..\Chip\inc\IAR\
//        -I
//        D:\Study\2016µÁ◊”…Ëº∆¥Û»¸\Ti\µÁ»¸±∏”√µ◊≤„\Prj\IAR\..\..\Chip\inc\kinetis\
//        -I
//        D:\Study\2016µÁ◊”…Ëº∆¥Û»¸\Ti\µÁ»¸±∏”√µ◊≤„\Prj\IAR\..\..\Lib\CMSIS\Inc\
//        -I D:\Study\2016µÁ◊”…Ëº∆¥Û»¸\Ti\µÁ»¸±∏”√µ◊≤„\Prj\IAR\..\..\Lib\FatFs\
//        -I D:\Study\2016µÁ◊”…Ëº∆¥Û»¸\Ti\µÁ»¸±∏”√µ◊≤„\Prj\IAR\..\..\Lib\USB\
//        -I
//        D:\Study\2016µÁ◊”…Ëº∆¥Û»¸\Ti\µÁ»¸±∏”√µ◊≤„\Prj\IAR\..\..\Board\Accessories\
//        -I
//        D:\Study\2016µÁ◊”…Ëº∆¥Û»¸\Ti\µÁ»¸±∏”√µ◊≤„\Prj\IAR\..\..\Board\Accessories\MPU6050\
//        -I
//        D:\Study\2016µÁ◊”…Ëº∆¥Û»¸\Ti\µÁ»¸±∏”√µ◊≤„\Prj\IAR\..\..\Board\Accessories\IMU\
//        -I
//        D:\Study\2016µÁ◊”…Ëº∆¥Û»¸\Ti\µÁ»¸±∏”√µ◊≤„\Prj\IAR\..\..\Board\Accessories\Driver\
//        -On
//    List file    =  
//        D:\Study\2016µÁ◊”…Ëº∆¥Û»¸\Ti\µÁ»¸±∏”√µ◊≤„\Prj\IAR\DZ10_Debug\List\VCAN_OLED.s
//
///////////////////////////////////////////////////////////////////////////////

        #define SHT_PROGBITS 0x1

        EXTERN SpeedWant
        EXTERN Speed_Kd
        EXTERN Speed_Ki
        EXTERN Speed_Kp
        EXTERN gpio_get
        EXTERN gpio_init
        EXTERN gpio_set
        EXTERN sprintf
        EXTERN systick_delay_ms

        PUBLIC BMP
        PUBLIC Draw_BMP
        PUBLIC F16x16
        PUBLIC F6x8
        PUBLIC F8x16
        PUBLIC LCD_CLS
        PUBLIC LCD_Fill
        PUBLIC LCD_Flag
        PUBLIC LCD_Init
        PUBLIC LCD_P16x16Ch
        PUBLIC LCD_P6x8Str
        PUBLIC LCD_P8x16Str
        PUBLIC LCD_PutPixel
        PUBLIC LCD_Rectangle
        PUBLIC LCD_Set_Pos
        PUBLIC LCD_WrCmd
        PUBLIC LCD_WrDat
        PUBLIC ParmAdjust
        PUBLIC `str`

// D:\Study\2016µÁ◊”…Ëº∆¥Û»¸\Ti\µÁ»¸±∏”√µ◊≤„\Board\src\VCAN_OLED.c
//    1 /*2014/6/12
//    2   k60 oledÈ©±Âä® by Mx
//    3 */
//    4 
//    5 
//    6 
//    7 
//    8 #include "include.h"
//    9 #include "MK60_gpio.h"
//   10 #include "VCAN_OLED.h"
//   11 #include "codetab.h"

        SECTION `.data`:DATA:REORDER:NOROOT(2)
// __absolute uint8 F16x16[1024]
F16x16:
        DATA
        DC8 64, 64, 128, 240, 128, 64, 64, 0, 2, 2, 1, 15, 1, 2, 2, 0, 64, 64
        DC8 128, 240, 128, 64, 64, 0, 2, 2, 1, 15, 1, 2, 2, 0, 64, 64, 128, 240
        DC8 128, 64, 64, 0, 2, 2, 1, 15, 1, 2, 2, 0, 64, 64, 128, 240, 128, 64
        DC8 64, 0, 2, 2, 1, 15, 1, 2, 2, 0, 16, 16, 208, 255, 255, 144, 16, 16
        DC8 16, 208, 255, 255, 208, 16, 16, 16, 4, 7, 3, 255, 255, 17, 25, 12
        DC8 7, 3, 255, 255, 3, 7, 12, 8, 32, 32, 32, 32, 32, 32, 255, 255, 48
        DC8 16, 17, 23, 214, 208, 16, 16, 0, 64, 64, 64, 96, 32, 49, 23, 30, 28
        DC8 54, 99, 65, 192, 240, 240, 16, 148, 215, 115, 62, 62, 114, 82, 16
        DC8 126, 126, 66, 66, 126, 126, 0, 0, 0, 0, 255, 255, 73, 73, 73, 73
        DC8 73, 73, 255, 255, 0, 0, 0, 8, 204, 206, 75, 73, 74, 206, 220, 24
        DC8 127, 255, 136, 140, 134, 226, 224, 0, 255, 255, 18, 82, 210, 255
        DC8 127, 0, 126, 254, 136, 140, 134, 226, 224, 64, 64, 128, 240, 128
        DC8 64, 64, 0, 2, 2, 1, 15, 1, 2, 2, 0, 64, 64, 128, 240, 128, 64, 64
        DC8 0, 2, 2, 1, 15, 1, 2, 2, 0, 64, 64, 128, 240, 128, 64, 64, 0, 2, 2
        DC8 1, 15, 1, 2, 2, 0, 64, 64, 128, 240, 128, 64, 64, 0, 2, 2, 1, 15, 1
        DC8 2, 2, 0, 64, 64, 72, 72, 72, 200, 120, 79, 72, 72, 72, 72, 72, 64
        DC8 64, 0, 0, 0, 0, 0, 3, 18, 18, 34, 34, 82, 138, 6, 0, 0, 0, 0, 0, 16
        DC8 96, 128, 0, 255, 0, 0, 0, 255, 0, 0, 192, 48, 0, 0, 64, 64, 64, 67
        DC8 64, 127, 64, 64, 64, 127, 66, 65, 64, 64, 64, 0, 0, 0, 248, 136
        DC8 136, 136, 136, 255, 136, 136, 136, 136, 248, 0, 0, 0, 0, 0, 31, 8
        DC8 8, 8, 8, 127, 136, 136, 136, 136, 159, 128, 240, 0, 128, 130, 130
        DC8 130, 130, 130, 130, 226, 162, 146, 138, 134, 130, 128, 128, 0, 0, 0
        DC8 0, 0, 0, 64, 128, 127, 0, 0, 0, 0, 0, 0, 0, 0, 64, 64, 66, 204, 0
        DC8 64, 160, 158, 130, 130, 130, 158, 160, 32, 32, 0, 0, 0, 0, 63, 144
        DC8 136, 64, 67, 44, 16, 40, 70, 65, 128, 128, 0, 64, 64, 66, 204, 0
        DC8 64, 64, 64, 64, 255, 64, 64, 64, 64, 64, 0, 0, 0, 0, 127, 32, 16, 0
        DC8 0, 0, 255, 0, 0, 0, 0, 0, 0, 128, 130, 130, 130, 254, 130, 130, 130
        DC8 130, 130, 254, 130, 130, 130, 128, 0, 0, 128, 64, 48, 15, 0, 0, 0
        DC8 0, 0, 255, 0, 0, 0, 0, 0, 0, 0, 24, 22, 16, 208, 184, 151, 144, 144
        DC8 144, 146, 148, 16, 0, 0, 0, 32, 16, 140, 131, 128, 65, 70, 40, 16
        DC8 40, 68, 67, 128, 128, 0, 0, 0, 248, 73, 74, 76, 72, 248, 72, 76, 74
        DC8 73, 248, 0, 0, 0, 16, 16, 19, 18, 18, 18, 18, 255, 18, 18, 18, 18
        DC8 19, 16, 16, 0, 0, 0, 0, 254, 32, 32, 32, 32, 32, 63, 32, 32, 32, 32
        DC8 0, 0, 0, 128, 96, 31, 2, 2, 2, 2, 2, 2, 254, 0, 0, 0, 0, 0, 16, 16
        DC8 208, 255, 144, 16, 0, 254, 2, 2, 2, 254, 0, 0, 0, 0, 4, 3, 0, 255
        DC8 0, 131, 96, 31, 0, 0, 0, 63, 64, 64, 120, 0, 36, 36, 164, 254, 35
        DC8 34, 0, 62, 34, 34, 34, 34, 34, 62, 0, 0, 8, 6, 1, 255, 1, 6, 64, 73
        DC8 73, 73, 127, 73, 73, 73, 65, 0, 0, 0, 252, 4, 4, 4, 20, 21, 86, 148
        DC8 84, 52, 20, 4, 4, 0, 64, 48, 15, 0, 1, 1, 1, 65, 129, 127, 1, 1, 1
        DC8 5, 3, 0, 0, 248, 12, 11, 8, 8, 248, 64, 48, 143, 8, 8, 8, 248, 0, 0
        DC8 0, 127, 33, 33, 33, 33, 127, 0, 0, 0, 67, 128, 64, 63, 0, 0, 64, 64
        DC8 66, 204, 0, 64, 160, 158, 130, 130, 130, 158, 160, 32, 32, 0, 0, 0
        DC8 0, 63, 144, 136, 64, 67, 44, 16, 40, 70, 65, 128, 128, 0, 64, 64
        DC8 66, 204, 0, 64, 64, 64, 64, 255, 64, 64, 64, 64, 64, 0, 0, 0, 0
        DC8 127, 32, 16, 0, 0, 0, 255, 0, 0, 0, 0, 0, 0, 0, 32, 34, 44, 32, 32
        DC8 224, 63, 32, 32, 32, 32, 224, 0, 0, 0, 128, 64, 32, 16, 8, 6, 1, 0
        DC8 1, 70, 128, 64, 63, 0, 0, 0, 0, 2, 2, 2, 2, 2, 2, 226, 34, 18, 10
        DC8 6, 2, 0, 0, 0, 0, 0, 0, 0, 0, 64, 128, 127, 0, 0, 0, 0, 0, 0, 0, 0
        DC8 128, 64, 48, 30, 16, 16, 16, 255, 16, 16, 16, 16, 16, 16, 0, 0, 64
        DC8 64, 66, 66, 66, 66, 66, 127, 66, 66, 66, 66, 66, 64, 64, 0, 16, 96
        DC8 2, 140, 0, 32, 36, 36, 36, 254, 34, 35, 34, 32, 32, 0, 4, 4, 126, 1
        DC8 0, 0, 254, 66, 66, 67, 66, 66, 254, 0, 0, 0, 0, 2, 2, 2, 2, 130, 66
        DC8 242, 14, 66, 130, 2, 2, 2, 0, 0, 16, 8, 4, 2, 1, 0, 0, 255, 0, 0, 0
        DC8 1, 2, 12, 0, 0, 0, 16, 136, 196, 51, 0, 190, 170, 170, 170, 170
        DC8 170, 190, 128, 0, 0, 2, 1, 0, 255, 0, 2, 10, 18, 2, 66, 130, 127, 2
        DC8 2, 2, 0, 0, 2, 2, 2, 2, 130, 66, 242, 14, 66, 130, 2, 2, 2, 0, 0
        DC8 16, 8, 4, 2, 1, 0, 0, 255, 0, 0, 0, 1, 2, 12, 0, 0, 128, 96, 248, 7
        DC8 136, 136, 255, 136, 136, 32, 216, 23, 16, 240, 16, 0, 0, 0, 255, 0
        DC8 63, 16, 16, 16, 159, 64, 55, 8, 54, 65, 128, 0

        SECTION `.data`:DATA:REORDER:NOROOT(2)
// __absolute uint8 BMP[1024]
BMP:
        DATA
        DC8 0, 0, 0, 0, 0, 0, 0, 0, 0, 0, 0, 0, 0, 0, 0, 0, 0, 0, 0, 0, 0, 0, 0
        DC8 0, 64, 192, 192, 192, 128, 128, 0, 0, 0, 128, 128, 192, 192, 224
        DC8 224, 224, 224, 224, 224, 96, 32, 48, 48, 48, 96, 96, 96, 96, 224
        DC8 224, 192, 224, 224, 240, 176, 48, 48, 48, 48, 48, 112, 96, 96, 224
        DC8 224, 192, 192, 128, 128, 192, 128, 128, 128, 192, 224, 224, 224
        DC8 240, 56, 30, 0, 0, 0, 0, 0, 0, 0, 0, 0, 0, 0, 0, 0, 0, 0, 0, 0, 0
        DC8 0, 0, 0, 0, 0, 0, 0, 0, 0, 0, 0, 0, 0, 0, 0, 0, 0, 0, 0, 0, 0, 0, 0
        DC8 0, 0, 0, 0, 0, 0, 0, 0, 0, 0, 0, 0, 0, 0, 0, 0, 0, 0, 0, 0, 0, 0, 0
        DC8 0, 0, 0, 0, 0, 1, 3, 3, 7, 31, 15, 31, 127, 127, 255, 255, 255, 255
        DC8 255, 255, 255, 255, 255, 255, 254, 255, 255, 255, 78, 78, 206, 206
        DC8 143, 154, 25, 249, 255, 255, 255, 255, 255, 255, 254, 254, 254, 255
        DC8 252, 252, 248, 249, 251, 255, 255, 255, 255, 255, 255, 255, 199, 1
        DC8 1, 0, 0, 0, 0, 0, 64, 96, 96, 96, 96, 224, 224, 252, 252, 224, 224
        DC8 96, 96, 96, 96, 96, 224, 254, 254, 224, 96, 96, 96, 96, 0, 0, 0, 0
        DC8 0, 0, 0, 0, 0, 0, 0, 0, 0, 0, 0, 0, 0, 0, 0, 0, 0, 0, 0, 0, 0, 0, 0
        DC8 0, 0, 0, 0, 0, 0, 0, 0, 0, 0, 0, 0, 0, 0, 0, 0, 0, 0, 0, 0, 0, 0, 0
        DC8 0, 0, 0, 0, 0, 0, 2, 135, 135, 143, 143, 143, 159, 159, 159, 159
        DC8 159, 222, 254, 252, 249, 241, 243, 243, 231, 231, 255, 255, 255
        DC8 255, 255, 255, 255, 255, 255, 255, 255, 255, 247, 231, 199, 135, 7
        DC8 7, 15, 15, 15, 15, 0, 0, 0, 0, 0, 0, 0, 4, 6, 7, 3, 3, 1, 31, 31, 3
        DC8 11, 31, 30, 14, 6, 3, 15, 31, 7, 31, 60, 48, 32, 0, 0, 0, 0, 0, 0
        DC8 0, 0, 0, 0, 0, 0, 0, 0, 0, 0, 0, 0, 0, 0, 0, 0, 0, 0, 0, 0, 0, 0, 0
        DC8 0, 0, 0, 0, 0, 0, 0, 0, 0, 0, 0, 0, 0, 0, 0, 0, 0, 0, 0, 0, 0, 0, 0
        DC8 0, 6, 15, 111, 111, 127, 127, 127, 127, 127, 127, 127, 127, 255
        DC8 255, 255, 127, 127, 127, 127, 127, 127, 255, 255, 255, 255, 127
        DC8 127, 127, 127, 255, 255, 255, 63, 63, 63, 63, 127, 255, 255, 63, 62
        DC8 60, 60, 56, 24, 8, 8, 8, 8, 24, 0, 0, 0, 0, 0, 0, 0, 0, 192, 192
        DC8 128, 0, 0, 0, 0, 0, 0, 0, 0, 0, 0, 0, 0, 0, 0, 0, 0, 0, 0, 0, 0, 0
        DC8 0, 0, 0, 0, 0, 0, 0, 0, 0, 0, 0, 0, 0, 0, 0, 0, 0, 0, 0, 0, 0, 0, 0
        DC8 0, 0, 0, 0, 0, 0, 0, 0, 0, 0, 0, 0, 0, 0, 0, 0, 0, 0, 0, 0, 0, 0, 0
        DC8 0, 0, 0, 0, 0, 224, 240, 248, 252, 222, 206, 199, 193, 193, 241
        DC8 248, 252, 222, 207, 255, 255, 255, 129, 128, 128, 128, 128, 128
        DC8 128, 143, 255, 255, 255, 0, 0, 0, 0, 0, 31, 255, 254, 96, 0, 0, 0
        DC8 0, 0, 0, 0, 0, 12, 12, 12, 12, 12, 12, 12, 12, 255, 255, 8, 8, 8
        DC8 27, 31, 30, 28, 24, 24, 24, 0, 0, 0, 0, 0, 0, 0, 0, 0, 0, 0, 0, 0
        DC8 0, 0, 0, 0, 0, 0, 0, 0, 0, 0, 0, 0, 0, 0, 0, 0, 0, 0, 0, 0, 0, 0, 0
        DC8 0, 0, 0, 0, 0, 0, 0, 0, 0, 0, 0, 0, 0, 0, 0, 0, 0, 0, 0, 0, 0, 0, 0
        DC8 0, 0, 0, 0, 3, 7, 207, 255, 255, 255, 255, 255, 255, 255, 255, 255
        DC8 255, 255, 255, 255, 255, 255, 255, 255, 255, 255, 255, 255, 255
        DC8 255, 255, 255, 255, 255, 255, 14, 14, 15, 7, 3, 0, 0, 0, 0, 0, 0, 0
        DC8 0, 0, 0, 224, 96, 96, 112, 48, 48, 24, 31, 31, 60, 254, 230, 131
        DC8 131, 128, 128, 128, 192, 192, 0, 0, 0, 0, 0, 0, 0, 0, 0, 0, 0, 0, 0
        DC8 0, 0, 0, 0, 0, 0, 0, 0, 0, 0, 0, 0, 0, 0, 0, 0, 0, 0, 0, 0, 0, 0, 0
        DC8 0, 0, 0, 0, 0, 0, 0, 0, 0, 0, 0, 0, 0, 0, 0, 0, 0, 0, 0, 0, 0, 0, 0
        DC8 0, 0, 0, 0, 0, 0, 255, 239, 247, 245, 254, 252, 243, 223, 255, 223
        DC8 248, 254, 230, 201, 255, 255, 129, 249, 255, 231, 247, 251, 129
        DC8 251, 255, 255, 255, 255, 0, 0, 0, 0, 0, 0, 0, 0, 0, 0, 0, 0, 0, 0
        DC8 0, 0, 0, 0, 0, 0, 0, 0, 0, 0, 0, 0, 0, 0, 0, 1, 1, 1, 1, 1, 1, 0, 0
        DC8 0, 0, 0, 0, 0, 0, 0, 0, 0, 0, 0, 0, 0, 0, 0, 0, 0, 0, 0, 0, 0, 0, 0
        DC8 0, 0, 0, 0, 0, 0, 0, 0, 0, 0, 0, 0, 0, 0, 0, 0, 0, 0, 0, 0, 0, 0, 0
        DC8 0, 0, 0, 0, 0, 0, 0, 0, 0, 0, 0, 0, 0, 0, 0, 0, 16, 31, 63, 63, 63
        DC8 63, 63, 63, 63, 127, 127, 127, 127, 127, 127, 127, 127, 127, 127
        DC8 127, 255, 255, 255, 255, 255, 255, 255, 255, 1, 0, 0, 0, 0, 0, 0, 0
        DC8 0, 0, 0, 0, 0, 0, 0, 0, 0, 0, 0, 0, 0, 0, 0, 0, 0, 0, 0, 0, 0, 0, 0
        DC8 0, 0, 0, 0, 0, 0, 0, 0, 0, 0, 0, 0, 0, 0, 0, 0, 0, 0, 0, 0, 0, 0, 0
        DC8 0, 0, 0, 0, 0, 0

        SECTION `.rodata`:CONST:REORDER:NOROOT(2)
?_0:
        DATA
        DC8 "    HEU-FLASH   "
        DC8 0, 0, 0

        SECTION `.rodata`:CONST:REORDER:NOROOT(1)
        DATA
        DC8 "="

        SECTION `.rodata`:CONST:REORDER:NOROOT(1)
        DATA
        DC8 " "

        SECTION `.rodata`:CONST:REORDER:NOROOT(2)
?_3:
        DATA
        DC8 "SpeedWant "
        DC8 0

        SECTION `.rodata`:CONST:REORDER:NOROOT(2)
?_4:
        DATA
        DC8 "Speed_Kp"
        DC8 0, 0, 0

        SECTION `.rodata`:CONST:REORDER:NOROOT(2)
?_5:
        DATA
        DC8 "Speed_Ki"
        DC8 0, 0, 0

        SECTION `.rodata`:CONST:REORDER:NOROOT(2)
?_6:
        DATA
        DC8 "Speed_Kd"
        DC8 0, 0, 0

        SECTION `.rodata`:CONST:REORDER:NOROOT(2)
        DATA
        DC8 "%6d"

        SECTION `.rodata`:CONST:REORDER:NOROOT(2)
// __absolute unsigned char const F6x8[92][6]
F6x8:
        DATA
        DC8 0, 0, 0, 0, 0, 0, 0, 0, 0, 47, 0, 0, 0, 0, 7, 0, 7, 0, 0, 20, 127
        DC8 20, 127, 20, 0, 36, 42, 127, 42, 18, 0, 98, 100, 8, 19, 35, 0, 54
        DC8 73, 85, 34, 80, 0, 0, 5, 3, 0, 0, 0, 0, 28, 34, 65, 0, 0, 0, 65, 34
        DC8 28, 0, 0, 20, 8, 62, 8, 20, 0, 8, 8, 62, 8, 8, 0, 0, 0, 160, 96, 0
        DC8 0, 8, 8, 8, 8, 8, 0, 0, 96, 96, 0, 0, 0, 32, 16, 8, 4, 2, 0, 62, 81
        DC8 73, 69, 62, 0, 0, 66, 127, 64, 0, 0, 66, 97, 81, 73, 70, 0, 33, 65
        DC8 69, 75, 49, 0, 24, 20, 18, 127, 16, 0, 39, 69, 69, 69, 57, 0, 60
        DC8 74, 73, 73, 48, 0, 1, 113, 9, 5, 3, 0, 54, 73, 73, 73, 54, 0, 6, 73
        DC8 73, 41, 30, 0, 0, 54, 54, 0, 0, 0, 0, 86, 54, 0, 0, 0, 8, 20, 34
        DC8 65, 0, 0, 20, 20, 20, 20, 20, 0, 0, 65, 34, 20, 8, 0, 2, 1, 81, 9
        DC8 6, 0, 50, 73, 89, 81, 62, 0, 124, 18, 17, 18, 124, 0, 127, 73, 73
        DC8 73, 54, 0, 62, 65, 65, 65, 34, 0, 127, 65, 65, 34, 28, 0, 127, 73
        DC8 73, 73, 65, 0, 127, 9, 9, 9, 1, 0, 62, 65, 73, 73, 122, 0, 127, 8
        DC8 8, 8, 127, 0, 0, 65, 127, 65, 0, 0, 32, 64, 65, 63, 1, 0, 127, 8
        DC8 20, 34, 65, 0, 127, 64, 64, 64, 64, 0, 127, 2, 12, 2, 127, 0, 127
        DC8 4, 8, 16, 127, 0, 62, 65, 65, 65, 62, 0, 127, 9, 9, 9, 6, 0, 62, 65
        DC8 81, 33, 94, 0, 127, 9, 25, 41, 70, 0, 70, 73, 73, 73, 49, 0, 1, 1
        DC8 127, 1, 1, 0, 63, 64, 64, 64, 63, 0, 31, 32, 64, 32, 31, 0, 63, 64
        DC8 56, 64, 63, 0, 99, 20, 8, 20, 99, 0, 7, 8, 112, 8, 7, 0, 97, 81, 73
        DC8 69, 67, 0, 0, 127, 65, 65, 0, 0, 85, 42, 85, 42, 85, 0, 0, 65, 65
        DC8 127, 0, 0, 4, 2, 1, 2, 4, 0, 64, 64, 64, 64, 64, 0, 0, 1, 2, 4, 0
        DC8 0, 32, 84, 84, 84, 120, 0, 127, 72, 68, 68, 56, 0, 56, 68, 68, 68
        DC8 32, 0, 56, 68, 68, 72, 127, 0, 56, 84, 84, 84, 24, 0, 8, 126, 9, 1
        DC8 2, 0, 24, 164, 164, 164, 124, 0, 127, 8, 4, 4, 120, 0, 0, 68, 125
        DC8 64, 0, 0, 64, 128, 132, 125, 0, 0, 127, 16, 40, 68, 0, 0, 0, 65
        DC8 127, 64, 0, 0, 124, 4, 24, 4, 120, 0, 124, 8, 4, 4, 120, 0, 56, 68
        DC8 68, 68, 56, 0, 252, 36, 36, 36, 24, 0, 24, 36, 36, 24, 252, 0, 124
        DC8 8, 4, 4, 8, 0, 72, 84, 84, 84, 32, 0, 4, 63, 68, 64, 32, 0, 60, 64
        DC8 64, 32, 124, 0, 28, 32, 64, 32, 28, 0, 60, 64, 48, 64, 60, 0, 68
        DC8 40, 16, 40, 68, 0, 28, 160, 160, 160, 124, 0, 68, 100, 84, 76, 68
        DC8 20, 20, 20, 20, 20, 20

        SECTION `.rodata`:CONST:REORDER:NOROOT(2)
// __absolute unsigned char const F8x16[1520]
F8x16:
        DATA
        DC8 0, 0, 0, 0, 0, 0, 0, 0, 0, 0, 0, 0, 0, 0, 0, 0, 0, 0, 0, 248, 0, 0
        DC8 0, 0, 0, 0, 0, 51, 48, 0, 0, 0, 0, 16, 12, 6, 16, 12, 6, 0, 0, 0, 0
        DC8 0, 0, 0, 0, 0, 64, 192, 120, 64, 192, 120, 64, 0, 4, 63, 4, 4, 63
        DC8 4, 4, 0, 0, 112, 136, 252, 8, 48, 0, 0, 0, 24, 32, 255, 33, 30, 0
        DC8 0, 240, 8, 240, 0, 224, 24, 0, 0, 0, 33, 28, 3, 30, 33, 30, 0, 0
        DC8 240, 8, 136, 112, 0, 0, 0, 30, 33, 35, 36, 25, 39, 33, 16, 16, 22
        DC8 14, 0, 0, 0, 0, 0, 0, 0, 0, 0, 0, 0, 0, 0, 0, 0, 0, 224, 24, 4, 2
        DC8 0, 0, 0, 0, 7, 24, 32, 64, 0, 0, 2, 4, 24, 224, 0, 0, 0, 0, 64, 32
        DC8 24, 7, 0, 0, 0, 64, 64, 128, 240, 128, 64, 64, 0, 2, 2, 1, 15, 1, 2
        DC8 2, 0, 0, 0, 0, 240, 0, 0, 0, 0, 1, 1, 1, 31, 1, 1, 1, 0, 0, 0, 0, 0
        DC8 0, 0, 0, 0, 128, 176, 112, 0, 0, 0, 0, 0, 0, 0, 0, 0, 0, 0, 0, 0, 0
        DC8 1, 1, 1, 1, 1, 1, 1, 0, 0, 0, 0, 0, 0, 0, 0, 0, 48, 48, 0, 0, 0, 0
        DC8 0, 0, 0, 0, 0, 128, 96, 24, 4, 0, 96, 24, 6, 1, 0, 0, 0, 0, 224, 16
        DC8 8, 8, 16, 224, 0, 0, 15, 16, 32, 32, 16, 15, 0, 0, 16, 16, 248, 0
        DC8 0, 0, 0, 0, 32, 32, 63, 32, 32, 0, 0, 0, 112, 8, 8, 8, 136, 112, 0
        DC8 0, 48, 40, 36, 34, 33, 48, 0, 0, 48, 8, 136, 136, 72, 48, 0, 0, 24
        DC8 32, 32, 32, 17, 14, 0, 0, 0, 192, 32, 16, 248, 0, 0, 0, 7, 4, 36
        DC8 36, 63, 36, 0, 0, 248, 8, 136, 136, 8, 8, 0, 0, 25, 33, 32, 32, 17
        DC8 14, 0, 0, 224, 16, 136, 136, 24, 0, 0, 0, 15, 17, 32, 32, 17, 14, 0
        DC8 0, 56, 8, 8, 200, 56, 8, 0, 0, 0, 0, 63, 0, 0, 0, 0, 0, 112, 136, 8
        DC8 8, 136, 112, 0, 0, 28, 34, 33, 33, 34, 28, 0, 0, 224, 16, 8, 8, 16
        DC8 224, 0, 0, 0, 49, 34, 34, 17, 15, 0, 0, 0, 0, 192, 192, 0, 0, 0, 0
        DC8 0, 0, 48, 48, 0, 0, 0, 0, 0, 0, 128, 0, 0, 0, 0, 0, 0, 128, 96, 0
        DC8 0, 0, 0, 0, 0, 128, 64, 32, 16, 8, 0, 0, 1, 2, 4, 8, 16, 32, 0, 64
        DC8 64, 64, 64, 64, 64, 64, 0, 4, 4, 4, 4, 4, 4, 4, 0, 0, 8, 16, 32, 64
        DC8 128, 0, 0, 0, 32, 16, 8, 4, 2, 1, 0, 0, 112, 72, 8, 8, 8, 240, 0, 0
        DC8 0, 0, 48, 54, 1, 0, 0, 192, 48, 200, 40, 232, 16, 224, 0, 7, 24, 39
        DC8 36, 35, 20, 11, 0, 0, 0, 192, 56, 224, 0, 0, 0, 32, 60, 35, 2, 2
        DC8 39, 56, 32, 8, 248, 136, 136, 136, 112, 0, 0, 32, 63, 32, 32, 32
        DC8 17, 14, 0, 192, 48, 8, 8, 8, 8, 56, 0, 7, 24, 32, 32, 32, 16, 8, 0
        DC8 8, 248, 8, 8, 8, 16, 224, 0, 32, 63, 32, 32, 32, 16, 15, 0, 8, 248
        DC8 136, 136, 232, 8, 16, 0, 32, 63, 32, 32, 35, 32, 24, 0, 8, 248, 136
        DC8 136, 232, 8, 16, 0, 32, 63, 32, 0, 3, 0, 0, 0, 192, 48, 8, 8, 8, 56
        DC8 0, 0, 7, 24, 32, 32, 34, 30, 2, 0, 8, 248, 8, 0, 0, 8, 248, 8, 32
        DC8 63, 33, 1, 1, 33, 63, 32, 0, 8, 8, 248, 8, 8, 0, 0, 0, 32, 32, 63
        DC8 32, 32, 0, 0, 0, 0, 8, 8, 248, 8, 8, 0, 192, 128, 128, 128, 127, 0
        DC8 0, 0, 8, 248, 136, 192, 40, 24, 8, 0, 32, 63, 32, 1, 38, 56, 32, 0
        DC8 8, 248, 8, 0, 0, 0, 0, 0, 32, 63, 32, 32, 32, 32, 48, 0, 8, 248
        DC8 248, 0, 248, 248, 8, 0, 32, 63, 0, 63, 0, 63, 32, 0, 8, 248, 48
        DC8 192, 0, 8, 248, 8, 32, 63, 32, 0, 7, 24, 63, 0, 224, 16, 8, 8, 8
        DC8 16, 224, 0, 15, 16, 32, 32, 32, 16, 15, 0, 8, 248, 8, 8, 8, 8, 240
        DC8 0, 32, 63, 33, 1, 1, 1, 0, 0, 224, 16, 8, 8, 8, 16, 224, 0, 15, 24
        DC8 36, 36, 56, 80, 79, 0, 8, 248, 136, 136, 136, 136, 112, 0, 32, 63
        DC8 32, 0, 3, 12, 48, 32, 0, 112, 136, 8, 8, 8, 56, 0, 0, 56, 32, 33
        DC8 33, 34, 28, 0, 24, 8, 8, 248, 8, 8, 24, 0, 0, 0, 32, 63, 32, 0, 0
        DC8 0, 8, 248, 8, 0, 0, 8, 248, 8, 0, 31, 32, 32, 32, 32, 31, 0, 8, 120
        DC8 136, 0, 0, 200, 56, 8, 0, 0, 7, 56, 14, 1, 0, 0, 248, 8, 0, 248, 0
        DC8 8, 248, 0, 3, 60, 7, 0, 7, 60, 3, 0, 8, 24, 104, 128, 128, 104, 24
        DC8 8, 32, 48, 44, 3, 3, 44, 48, 32, 8, 56, 200, 0, 200, 56, 8, 0, 0, 0
        DC8 32, 63, 32, 0, 0, 0, 16, 8, 8, 8, 200, 56, 8, 0, 32, 56, 38, 33, 32
        DC8 32, 24, 0, 0, 0, 0, 254, 2, 2, 2, 0, 0, 0, 0, 127, 64, 64, 64, 0, 0
        DC8 12, 48, 192, 0, 0, 0, 0, 0, 0, 0, 1, 6, 56, 192, 0, 0, 2, 2, 2, 254
        DC8 0, 0, 0, 0, 64, 64, 64, 127, 0, 0, 0, 0, 0, 4, 2, 2, 2, 4, 0, 0, 0
        DC8 0, 0, 0, 0, 0, 0, 0, 0, 0, 0, 0, 0, 0, 0, 128, 128, 128, 128, 128
        DC8 128, 128, 128, 0, 2, 2, 4, 0, 0, 0, 0, 0, 0, 0, 0, 0, 0, 0, 0, 0, 0
        DC8 128, 128, 128, 128, 0, 0, 0, 25, 36, 34, 34, 34, 63, 32, 8, 248, 0
        DC8 128, 128, 0, 0, 0, 0, 63, 17, 32, 32, 17, 14, 0, 0, 0, 0, 128, 128
        DC8 128, 0, 0, 0, 14, 17, 32, 32, 32, 17, 0, 0, 0, 0, 128, 128, 136
        DC8 248, 0, 0, 14, 17, 32, 32, 16, 63, 32, 0, 0, 128, 128, 128, 128, 0
        DC8 0, 0, 31, 34, 34, 34, 34, 19, 0, 0, 128, 128, 240, 136, 136, 136
        DC8 24, 0, 32, 32, 63, 32, 32, 0, 0, 0, 0, 128, 128, 128, 128, 128, 0
        DC8 0, 107, 148, 148, 148, 147, 96, 0, 8, 248, 0, 128, 128, 128, 0, 0
        DC8 32, 63, 33, 0, 0, 32, 63, 32, 0, 128, 152, 152, 0, 0, 0, 0, 0, 32
        DC8 32, 63, 32, 32, 0, 0, 0, 0, 0, 128, 152, 152, 0, 0, 0, 192, 128
        DC8 128, 128, 127, 0, 0, 8, 248, 0, 0, 128, 128, 128, 0, 32, 63, 36, 2
        DC8 45, 48, 32, 0, 0, 8, 8, 248, 0, 0, 0, 0, 0, 32, 32, 63, 32, 32, 0
        DC8 0, 128, 128, 128, 128, 128, 128, 128, 0, 32, 63, 32, 0, 63, 32, 0
        DC8 63, 128, 128, 0, 128, 128, 128, 0, 0, 32, 63, 33, 0, 0, 32, 63, 32
        DC8 0, 0, 128, 128, 128, 128, 0, 0, 0, 31, 32, 32, 32, 32, 31, 0, 128
        DC8 128, 0, 128, 128, 0, 0, 0, 128, 255, 161, 32, 32, 17, 14, 0, 0, 0
        DC8 0, 128, 128, 128, 128, 0, 0, 14, 17, 32, 32, 160, 255, 128, 128
        DC8 128, 128, 0, 128, 128, 128, 0, 32, 32, 63, 33, 32, 0, 1, 0, 0, 0
        DC8 128, 128, 128, 128, 128, 0, 0, 51, 36, 36, 36, 36, 25, 0, 0, 128
        DC8 128, 224, 128, 128, 0, 0, 0, 0, 0, 31, 32, 32, 0, 0, 128, 128, 0, 0
        DC8 0, 128, 128, 0, 0, 31, 32, 32, 32, 16, 63, 32, 128, 128, 128, 0, 0
        DC8 128, 128, 128, 0, 1, 14, 48, 8, 6, 1, 0, 128, 128, 0, 128, 0, 128
        DC8 128, 128, 15, 48, 12, 3, 12, 48, 15, 0, 0, 128, 128, 0, 128, 128
        DC8 128, 0, 0, 32, 49, 46, 14, 49, 32, 0, 128, 128, 128, 0, 0, 128, 128
        DC8 128, 128, 129, 142, 112, 24, 6, 1, 0, 0, 128, 128, 128, 128, 128
        DC8 128, 0, 0, 33, 48, 44, 34, 33, 48, 0, 0, 0, 0, 0, 128, 124, 2, 2, 0
        DC8 0, 0, 0, 0, 63, 64, 64, 0, 0, 0, 0, 255, 0, 0, 0, 0, 0, 0, 0, 255
        DC8 0, 0, 0, 0, 2, 2, 124, 128, 0, 0, 0, 0, 64, 64, 63, 0, 0, 0, 0, 0
        DC8 6, 1, 1, 2, 2, 4, 4, 0, 0, 0, 0, 0, 0, 0, 0
//   12 
//   13 //******************************
//   14 //ÂäüËÉΩËØ¥ÊòéÔºöLCDÂÜôÊï∞ÊçÆ
//   15 //ÂèÇÊï∞ËØ¥ÊòéÔºödat ÂÜôÂÖ•ÂÖ´‰ΩçÊï∞ÊçÆ
//   16 //ÂáΩÊï∞ËøîÂõûÔºöÊó†
//   17 //‰øÆÊîπÊó∂Èó¥Ôºö2014/6/12
//   18 //Â§áÊ≥®ÔºöÊó†
//   19 //******************************
//   20 

        SECTION `.text`:CODE:NOROOT(1)
        THUMB
//   21 void LCD_WrDat(uint8 dat)
//   22 {
LCD_WrDat:
        PUSH     {R3-R5,LR}
        MOVS     R4,R0
//   23 	uint8 i;
//   24 	SET_DC_H;
        MOVS     R1,#+1
        MOVS     R0,#+41
        BL       gpio_set
//   25         SET_SCL_L;   //Ëá™Â∑±Âä†ÁöÑ
        MOVS     R1,#+0
        MOVS     R0,#+28
        BL       gpio_set
//   26 	for(i=0;i<8;i++)
        MOVS     R0,#+0
        MOVS     R5,R0
??LCD_WrDat_0:
        UXTB     R5,R5            ;; ZeroExt  R5,R5,#+24,#+24
        CMP      R5,#+8
        BGE.N    ??LCD_WrDat_1
//   27 	{
//   28 		if((dat << i) & 0x80)
        UXTB     R4,R4            ;; ZeroExt  R4,R4,#+24,#+24
        LSLS     R0,R4,R5
        LSLS     R0,R0,#+24
        BPL.N    ??LCD_WrDat_2
//   29 			SET_SDA_H;
        MOVS     R1,#+1
        MOVS     R0,#+29
        BL       gpio_set
        B.N      ??LCD_WrDat_3
//   30 		else
//   31 			SET_SDA_L;
??LCD_WrDat_2:
        MOVS     R1,#+0
        MOVS     R0,#+29
        BL       gpio_set
//   32 		SET_SCL_H;   //‰øÆÊîπËøáÔºåH‰∏éL‰∫íÊç¢‰ΩçÁΩÆ
??LCD_WrDat_3:
        MOVS     R1,#+1
        MOVS     R0,#+28
        BL       gpio_set
//   33 		SET_SCL_L;
        MOVS     R1,#+0
        MOVS     R0,#+28
        BL       gpio_set
//   34 	}
        ADDS     R5,R5,#+1
        B.N      ??LCD_WrDat_0
//   35 }
??LCD_WrDat_1:
        POP      {R0,R4,R5,PC}    ;; return
//   36 
//   37 
//   38 
//   39 //******************************
//   40 //ÂäüËÉΩËØ¥ÊòéÔºöLCDÂÜôÂëΩ‰ª§
//   41 //ÂèÇÊï∞ËØ¥ÊòéÔºödat ÂÜôÂÖ•ÂÖ´‰ΩçÊï∞ÊçÆ
//   42 //ÂáΩÊï∞ËøîÂõûÔºöÊó†
//   43 //‰øÆÊîπÊó∂Èó¥Ôºö2014/6/12
//   44 //Â§áÊ≥®ÔºöÊó†
//   45 //******************************
//   46 

        SECTION `.text`:CODE:NOROOT(1)
        THUMB
//   47 void LCD_WrCmd(uint8 cmd)
//   48 {
LCD_WrCmd:
        PUSH     {R3-R5,LR}
        MOVS     R4,R0
//   49 	uint8 i;
//   50 	SET_DC_L;
        MOVS     R1,#+0
        MOVS     R0,#+41
        BL       gpio_set
//   51         SET_SCL_L;          //Ëá™Â∑±Âä†ÁöÑ
        MOVS     R1,#+0
        MOVS     R0,#+28
        BL       gpio_set
//   52 	for(i=0;i<8;i++)
        MOVS     R0,#+0
        MOVS     R5,R0
??LCD_WrCmd_0:
        UXTB     R5,R5            ;; ZeroExt  R5,R5,#+24,#+24
        CMP      R5,#+8
        BGE.N    ??LCD_WrCmd_1
//   53 	{
//   54 		if((cmd << i) & 0x80)
        UXTB     R4,R4            ;; ZeroExt  R4,R4,#+24,#+24
        LSLS     R0,R4,R5
        LSLS     R0,R0,#+24
        BPL.N    ??LCD_WrCmd_2
//   55 			SET_SDA_H;
        MOVS     R1,#+1
        MOVS     R0,#+29
        BL       gpio_set
        B.N      ??LCD_WrCmd_3
//   56 		else
//   57 			SET_SDA_L;
??LCD_WrCmd_2:
        MOVS     R1,#+0
        MOVS     R0,#+29
        BL       gpio_set
//   58 		SET_SCL_H;     //‰∫íÊç¢Ëøá‰ΩçÁΩÆ
??LCD_WrCmd_3:
        MOVS     R1,#+1
        MOVS     R0,#+28
        BL       gpio_set
//   59 		SET_SCL_L;
        MOVS     R1,#+0
        MOVS     R0,#+28
        BL       gpio_set
//   60 	}
        ADDS     R5,R5,#+1
        B.N      ??LCD_WrCmd_0
//   61 }
??LCD_WrCmd_1:
        POP      {R0,R4,R5,PC}    ;; return
//   62 
//   63 
//   64 //******************************
//   65 //ÂäüËÉΩËØ¥ÊòéÔºöLCD ËÆæÁΩÆÂùêÊ†á
//   66 //ÂèÇÊï∞ËØ¥ÊòéÔºöx  0~128
//   67 //          y  0~64
//   68 //ÂáΩÊï∞ËøîÂõûÔºöÊó†
//   69 //‰øÆÊîπÊó∂Èó¥Ôºö2014/6/12
//   70 //Â§áÊ≥®ÔºöÊó†
//   71 //******************************
//   72 

        SECTION `.text`:CODE:NOROOT(1)
        THUMB
//   73 void LCD_Set_Pos(uint8 x, uint8 y)
//   74 {
LCD_Set_Pos:
        PUSH     {R3-R5,LR}
        MOVS     R4,R0
        MOVS     R5,R1
//   75 	LCD_WrCmd(0xb0 + y);
        SUBS     R0,R5,#+80
        UXTB     R0,R0            ;; ZeroExt  R0,R0,#+24,#+24
        BL       LCD_WrCmd
//   76 	LCD_WrCmd(((x&0xf0)>>4)|0x10);
        UXTB     R4,R4            ;; ZeroExt  R4,R4,#+24,#+24
        LSRS     R0,R4,#+4
        ORRS     R0,R0,#0x10
        UXTB     R0,R0            ;; ZeroExt  R0,R0,#+24,#+24
        BL       LCD_WrCmd
//   77 	LCD_WrCmd((x&0x0f)|0x01);
        ANDS     R0,R4,#0xF
        ORRS     R0,R0,#0x1
        UXTB     R0,R0            ;; ZeroExt  R0,R0,#+24,#+24
        BL       LCD_WrCmd
//   78     
//   79 }
        POP      {R0,R4,R5,PC}    ;; return
//   80 
//   81 //******************************
//   82 //ÂäüËÉΩËØ¥ÊòéÔºöLCD ÂÖ®Â±è
//   83 //ÂèÇÊï∞ËØ¥ÊòéÔºö
//   84 //ÂáΩÊï∞ËøîÂõûÔºöÊó†
//   85 //‰øÆÊîπÊó∂Èó¥Ôºö2014/6/12
//   86 //Â§áÊ≥®ÔºöÊó†
//   87 //******************************
//   88 

        SECTION `.text`:CODE:NOROOT(1)
        THUMB
//   89 void LCD_Fill(uint8 bmp_dat)
//   90 {
LCD_Fill:
        PUSH     {R4-R6,LR}
        MOVS     R4,R0
//   91 	uint8 y,x;
//   92 	for(y=0;y<8;y++)
        MOVS     R0,#+0
        MOVS     R5,R0
??LCD_Fill_0:
        UXTB     R5,R5            ;; ZeroExt  R5,R5,#+24,#+24
        CMP      R5,#+8
        BGE.N    ??LCD_Fill_1
//   93 	{
//   94 		LCD_WrCmd(0xb0+y);
        SUBS     R0,R5,#+80
        UXTB     R0,R0            ;; ZeroExt  R0,R0,#+24,#+24
        BL       LCD_WrCmd
//   95 		LCD_WrCmd(0x01);
        MOVS     R0,#+1
        BL       LCD_WrCmd
//   96 		LCD_WrCmd(0x10);
        MOVS     R0,#+16
        BL       LCD_WrCmd
//   97 		for(x=0;x<X_WIDTH;x++)
        MOVS     R0,#+0
        MOVS     R6,R0
??LCD_Fill_2:
        UXTB     R6,R6            ;; ZeroExt  R6,R6,#+24,#+24
        CMP      R6,#+128
        BGE.N    ??LCD_Fill_3
//   98 			LCD_WrDat(bmp_dat);
        MOVS     R0,R4
        UXTB     R0,R0            ;; ZeroExt  R0,R0,#+24,#+24
        BL       LCD_WrDat
        ADDS     R6,R6,#+1
        B.N      ??LCD_Fill_2
//   99 	}
??LCD_Fill_3:
        ADDS     R5,R5,#+1
        B.N      ??LCD_Fill_0
//  100 }
??LCD_Fill_1:
        POP      {R4-R6,PC}       ;; return
//  101 
//  102 //******************************
//  103 //ÂäüËÉΩËØ¥ÊòéÔºöLCD Â§ç‰Ωç
//  104 //ÂèÇÊï∞ËØ¥ÊòéÔºöÊó†
//  105 //ÂáΩÊï∞ËøîÂõûÔºöÊó†
//  106 //‰øÆÊîπÊó∂Èó¥Ôºö2014/6/12
//  107 //Â§áÊ≥®ÔºöÊó†
//  108 //******************************
//  109 

        SECTION `.text`:CODE:NOROOT(1)
        THUMB
//  110 void LCD_CLS(void)
//  111 {
LCD_CLS:
        PUSH     {R3-R5,LR}
//  112 	uint8 y,x;
//  113 	for(y=0;y<8;y++)
        MOVS     R0,#+0
        MOVS     R4,R0
??LCD_CLS_0:
        UXTB     R4,R4            ;; ZeroExt  R4,R4,#+24,#+24
        CMP      R4,#+8
        BGE.N    ??LCD_CLS_1
//  114 	{
//  115 		LCD_WrCmd(0xb0+y);
        SUBS     R0,R4,#+80
        UXTB     R0,R0            ;; ZeroExt  R0,R0,#+24,#+24
        BL       LCD_WrCmd
//  116 		LCD_WrCmd(0x01);
        MOVS     R0,#+1
        BL       LCD_WrCmd
//  117 		LCD_WrCmd(0x10);
        MOVS     R0,#+16
        BL       LCD_WrCmd
//  118 		for(x=0;x<X_WIDTH;x++)
        MOVS     R0,#+0
        MOVS     R5,R0
??LCD_CLS_2:
        UXTB     R5,R5            ;; ZeroExt  R5,R5,#+24,#+24
        CMP      R5,#+128
        BGE.N    ??LCD_CLS_3
//  119 			LCD_WrDat(0);
        MOVS     R0,#+0
        BL       LCD_WrDat
        ADDS     R5,R5,#+1
        B.N      ??LCD_CLS_2
//  120 	}
??LCD_CLS_3:
        ADDS     R4,R4,#+1
        B.N      ??LCD_CLS_0
//  121 }
??LCD_CLS_1:
        POP      {R0,R4,R5,PC}    ;; return
//  122 
//  123 //******************************
//  124 //ÂäüËÉΩËØ¥ÊòéÔºöLCD ÂàùÂßãÂåñ
//  125 //ÂèÇÊï∞ËØ¥ÊòéÔºöÊó†
//  126 //ÂáΩÊï∞ËøîÂõûÔºöÊó†
//  127 //‰øÆÊîπÊó∂Èó¥Ôºö2014/6/12
//  128 //Â§áÊ≥®ÔºöÊó†
//  129 //******************************

        SECTION `.text`:CODE:NOROOT(1)
        THUMB
//  130 void LCD_Init(void)     
//  131 {  
LCD_Init:
        PUSH     {R7,LR}
//  132     gpio_init (RST_PIN, GPO,0);
        MOVS     R2,#+0
        MOVS     R1,#+1
        MOVS     R0,#+40
        BL       gpio_init
//  133     gpio_init (DC_PIN , GPO,0);
        MOVS     R2,#+0
        MOVS     R1,#+1
        MOVS     R0,#+41
        BL       gpio_init
//  134     gpio_init (SCL_PIN, GPO,0);
        MOVS     R2,#+0
        MOVS     R1,#+1
        MOVS     R0,#+28
        BL       gpio_init
//  135     gpio_init (SDA_PIN, GPO,0);
        MOVS     R2,#+0
        MOVS     R1,#+1
        MOVS     R0,#+29
        BL       gpio_init
//  136 
//  137     SET_SCL_H;
        MOVS     R1,#+1
        MOVS     R0,#+28
        BL       gpio_set
//  138     SET_RST_L;
        MOVS     R1,#+0
        MOVS     R0,#+40
        BL       gpio_set
//  139     DELAY_MS(50);
        MOVS     R0,#+50
        BL       systick_delay_ms
//  140     SET_RST_H;          //‰ªé‰∏äÁîµÂà∞‰∏ãÈù¢ÂºÄÂßãÂàùÂßãÂåñË¶ÅÊúâË∂≥Â§üÁöÑÊó∂Èó¥ÔºåÂç≥Á≠âÂæÖRCÂ§ç‰ΩçÂÆåÊØï   
        MOVS     R1,#+1
        MOVS     R0,#+40
        BL       gpio_set
//  141     LCD_WrCmd(0xae);//--turn off oled panel
        MOVS     R0,#+174
        BL       LCD_WrCmd
//  142     LCD_WrCmd(0x00);//---set low column address
        MOVS     R0,#+0
        BL       LCD_WrCmd
//  143     LCD_WrCmd(0x10);//---set high column address
        MOVS     R0,#+16
        BL       LCD_WrCmd
//  144     LCD_WrCmd(0x40);//--set start line address  Set Mapping RAM Display Start Line (0x00~0x3F)
        MOVS     R0,#+64
        BL       LCD_WrCmd
//  145     LCD_WrCmd(0x81);//--set contrast control register
        MOVS     R0,#+129
        BL       LCD_WrCmd
//  146     LCD_WrCmd(0xcf); // Set SEG Output Current Brightness
        MOVS     R0,#+207
        BL       LCD_WrCmd
//  147     LCD_WrCmd(0xa1);//--Set SEG/Column Mapping     0xa0Â∑¶Âè≥ÂèçÁΩÆ 0xa1Ê≠£Â∏∏
        MOVS     R0,#+161
        BL       LCD_WrCmd
//  148     LCD_WrCmd(0xc8);//Set COM/Row Scan Direction   0xc0‰∏ä‰∏ãÂèçÁΩÆ 0xc8Ê≠£Â∏∏
        MOVS     R0,#+200
        BL       LCD_WrCmd
//  149     LCD_WrCmd(0xa6);//--set normal display
        MOVS     R0,#+166
        BL       LCD_WrCmd
//  150     LCD_WrCmd(0xa8);//--set multiplex ratio(1 to 64)
        MOVS     R0,#+168
        BL       LCD_WrCmd
//  151     LCD_WrCmd(0x3f);//--1/64 duty
        MOVS     R0,#+63
        BL       LCD_WrCmd
//  152     LCD_WrCmd(0xd3);//-set display offset	Shift Mapping RAM Counter (0x00~0x3F)
        MOVS     R0,#+211
        BL       LCD_WrCmd
//  153     LCD_WrCmd(0x00);//-not offset
        MOVS     R0,#+0
        BL       LCD_WrCmd
//  154     LCD_WrCmd(0xd5);//--set display clock divide ratio/oscillator frequency
        MOVS     R0,#+213
        BL       LCD_WrCmd
//  155     LCD_WrCmd(0x80);//--set divide ratio, Set Clock as 100 Frames/Sec
        MOVS     R0,#+128
        BL       LCD_WrCmd
//  156     LCD_WrCmd(0xd9);//--set pre-charge period
        MOVS     R0,#+217
        BL       LCD_WrCmd
//  157     LCD_WrCmd(0xf1);//Set Pre-Charge as 15 Clocks & Discharge as 1 Clock
        MOVS     R0,#+241
        BL       LCD_WrCmd
//  158     LCD_WrCmd(0xda);//--set com pins hardware configuration
        MOVS     R0,#+218
        BL       LCD_WrCmd
//  159     LCD_WrCmd(0x12);
        MOVS     R0,#+18
        BL       LCD_WrCmd
//  160     LCD_WrCmd(0xdb);//--set vcomh
        MOVS     R0,#+219
        BL       LCD_WrCmd
//  161     LCD_WrCmd(0x40);//Set VCOM Deselect Level
        MOVS     R0,#+64
        BL       LCD_WrCmd
//  162     LCD_WrCmd(0x20);//-Set Page Addressing Mode (0x00/0x01/0x02)
        MOVS     R0,#+32
        BL       LCD_WrCmd
//  163     LCD_WrCmd(0x02);//
        MOVS     R0,#+2
        BL       LCD_WrCmd
//  164     LCD_WrCmd(0x8d);//--set Charge Pump enable/disable
        MOVS     R0,#+141
        BL       LCD_WrCmd
//  165     LCD_WrCmd(0x14);//--set(0x10) disable
        MOVS     R0,#+20
        BL       LCD_WrCmd
//  166     LCD_WrCmd(0xa4);// Disable Entire Display On (0xa4/0xa5)
        MOVS     R0,#+164
        BL       LCD_WrCmd
//  167     LCD_WrCmd(0xa6);// Disable Inverse Display On (0xa6/a7) 
        MOVS     R0,#+166
        BL       LCD_WrCmd
//  168     LCD_WrCmd(0xaf);//--turn on oled panel
        MOVS     R0,#+175
        BL       LCD_WrCmd
//  169     LCD_Fill(0x00);  //ÂàùÂßãÊ∏ÖÂ±è
        MOVS     R0,#+0
        BL       LCD_Fill
//  170     LCD_Set_Pos(0,0); 	
        MOVS     R1,#+0
        MOVS     R0,#+0
        BL       LCD_Set_Pos
//  171 } 
        POP      {R0,PC}          ;; return
//  172 //******************************
//  173 //ÂáΩÊï∞ÂêçÔºö void LCD_PutPixel(byte x,byte y)
//  174 //ÂäüËÉΩÊèèËø∞ÔºöÁªòÂà∂‰∏Ä‰∏™ÁÇπÔºàx,yÔºâ
//  175 //ÂèÇÊï∞ËØ¥ÊòéÔºöÁúüÂÆûÂùêÊ†áÂÄº(x,y),xÁöÑËåÉÂõ¥0ÔΩû127ÔºåyÁöÑËåÉÂõ¥0ÔΩû64
//  176 //ÂáΩÊï∞ËøîÂõûÔºöÊó†
//  177 //******************************

        SECTION `.text`:CODE:NOROOT(1)
        THUMB
//  178 void LCD_PutPixel(uint8 x,uint8 y)
//  179 {
LCD_PutPixel:
        PUSH     {R4-R6,LR}
        MOVS     R4,R0
        MOVS     R5,R1
//  180 	uint8 data1;  //data1ÂΩìÂâçÁÇπÁöÑÊï∞ÊçÆ 
//  181 	 
//  182   LCD_Set_Pos(x,y); 
        MOVS     R1,R5
        UXTB     R1,R1            ;; ZeroExt  R1,R1,#+24,#+24
        MOVS     R0,R4
        UXTB     R0,R0            ;; ZeroExt  R0,R0,#+24,#+24
        BL       LCD_Set_Pos
//  183 	data1 = 0x01<<(y%8); 	
        MOVS     R0,#+1
        UXTB     R5,R5            ;; ZeroExt  R5,R5,#+24,#+24
        MOVS     R1,#+8
        SDIV     R2,R5,R1
        MLS      R2,R2,R1,R5
        LSLS     R0,R0,R2
        MOVS     R6,R0
//  184 	LCD_WrCmd(0xb0+(y>>3));
        UXTB     R5,R5            ;; ZeroExt  R5,R5,#+24,#+24
        LSRS     R0,R5,#+3
        SUBS     R0,R0,#+80
        UXTB     R0,R0            ;; ZeroExt  R0,R0,#+24,#+24
        BL       LCD_WrCmd
//  185 	LCD_WrCmd(((x&0xf0)>>4)|0x10);
        UXTB     R4,R4            ;; ZeroExt  R4,R4,#+24,#+24
        LSRS     R0,R4,#+4
        ORRS     R0,R0,#0x10
        UXTB     R0,R0            ;; ZeroExt  R0,R0,#+24,#+24
        BL       LCD_WrCmd
//  186 	LCD_WrCmd((x&0x0f)|0x00);
        ANDS     R0,R4,#0xF
        BL       LCD_WrCmd
//  187 	LCD_WrDat(data1); 	 	
        MOVS     R0,R6
        UXTB     R0,R0            ;; ZeroExt  R0,R0,#+24,#+24
        BL       LCD_WrDat
//  188 }
        POP      {R4-R6,PC}       ;; return
//  189 //******************************
//  190 //ÂáΩÊï∞ÂêçÔºö void LCD_Rectangle(uint8 x1,uint8 y1,uint8 x2,byte y2,byte color,byte gif)
//  191 //ÂäüËÉΩÊèèËø∞ÔºöÁªòÂà∂‰∏Ä‰∏™ÂÆûÂøÉÁü©ÂΩ¢
//  192 //ÂèÇÊï∞ËØ¥ÊòéÔºöÂ∑¶‰∏äËßíÂùêÊ†áÔºàx1,y1Ôºâ,Âè≥‰∏ãËßíÂùêÊ†áÔºàx2Ôºåy2Ôºâ,ÂÖ∂‰∏≠x1„ÄÅx2ÁöÑËåÉÂõ¥0ÔΩû127Ôºåy1Ôºåy2ÁöÑËåÉÂõ¥0ÔΩû63ÔºåÂç≥ÁúüÂÆûÂùêÊ†áÂÄº
//  193 //ÂáΩÊï∞ËøîÂõûÔºöÊó†
//  194 //******************************

        SECTION `.text`:CODE:NOROOT(1)
        THUMB
//  195 void LCD_Rectangle(uint8 x1,uint8 y1,uint8 x2,uint8 y2,uint8 gif)
//  196 {
LCD_Rectangle:
        PUSH     {R3-R9,LR}
        MOVS     R5,R0
        MOVS     R6,R1
        MOVS     R7,R2
        MOV      R8,R3
        LDR      R4,[SP, #+32]
//  197 	uint8 n; 
//  198 		
//  199 	LCD_Set_Pos(x1,y1>>3);
        UXTB     R6,R6            ;; ZeroExt  R6,R6,#+24,#+24
        LSRS     R1,R6,#+3
        MOVS     R0,R5
        UXTB     R0,R0            ;; ZeroExt  R0,R0,#+24,#+24
        BL       LCD_Set_Pos
//  200 	for(n=x1;n<=x2;n++)
        MOV      R9,R5
??LCD_Rectangle_0:
        UXTB     R7,R7            ;; ZeroExt  R7,R7,#+24,#+24
        UXTB     R9,R9            ;; ZeroExt  R9,R9,#+24,#+24
        CMP      R7,R9
        BCC.N    ??LCD_Rectangle_1
//  201 	{
//  202 		LCD_WrDat(0x01<<(y1%8)); 			
        MOVS     R0,#+1
        UXTB     R6,R6            ;; ZeroExt  R6,R6,#+24,#+24
        MOVS     R1,#+8
        SDIV     R2,R6,R1
        MLS      R2,R2,R1,R6
        LSLS     R0,R0,R2
        UXTB     R0,R0            ;; ZeroExt  R0,R0,#+24,#+24
        BL       LCD_WrDat
//  203 		if(gif == 1) 	DELAY_MS(50);
        UXTB     R4,R4            ;; ZeroExt  R4,R4,#+24,#+24
        CMP      R4,#+1
        BNE.N    ??LCD_Rectangle_2
        MOVS     R0,#+50
        BL       systick_delay_ms
//  204 	}  
??LCD_Rectangle_2:
        ADDS     R9,R9,#+1
        B.N      ??LCD_Rectangle_0
//  205 	LCD_Set_Pos(x1,y2>>3);
??LCD_Rectangle_1:
        UXTB     R8,R8            ;; ZeroExt  R8,R8,#+24,#+24
        LSRS     R1,R8,#+3
        MOVS     R0,R5
        UXTB     R0,R0            ;; ZeroExt  R0,R0,#+24,#+24
        BL       LCD_Set_Pos
//  206   for(n=x1;n<=x2;n++)
        MOV      R9,R5
??LCD_Rectangle_3:
        UXTB     R7,R7            ;; ZeroExt  R7,R7,#+24,#+24
        UXTB     R9,R9            ;; ZeroExt  R9,R9,#+24,#+24
        CMP      R7,R9
        BCC.N    ??LCD_Rectangle_4
//  207 	{
//  208 		LCD_WrDat(0x01<<(y2%8)); 			
        MOVS     R0,#+1
        UXTB     R8,R8            ;; ZeroExt  R8,R8,#+24,#+24
        MOVS     R1,#+8
        SDIV     R2,R8,R1
        MLS      R2,R2,R1,R8
        LSLS     R0,R0,R2
        UXTB     R0,R0            ;; ZeroExt  R0,R0,#+24,#+24
        BL       LCD_WrDat
//  209 		if(gif == 1) 	DELAY_MS(5);
        UXTB     R4,R4            ;; ZeroExt  R4,R4,#+24,#+24
        CMP      R4,#+1
        BNE.N    ??LCD_Rectangle_5
        MOVS     R0,#+5
        BL       systick_delay_ms
//  210 	}
??LCD_Rectangle_5:
        ADDS     R9,R9,#+1
        B.N      ??LCD_Rectangle_3
//  211 	
//  212 }  
??LCD_Rectangle_4:
        POP      {R0,R4-R9,PC}    ;; return
//  213 //******************************
//  214 //ÂäüËÉΩËØ¥ÊòéÔºöÊòæÁ§∫6*8‰∏ÄÁªÑÊ†áÂáÜASCIIÂ≠óÁ¨¶‰∏≤
//  215 //ÂèÇÊï∞ËØ¥ÊòéÔºöÊòæÁ§∫ÁöÑÂùêÊ†áÔºàx,yÔºâÔºåy‰∏∫È°µËåÉÂõ¥0ÔΩû7
//  216 //ÂáΩÊï∞ËøîÂõûÔºöÊó†
//  217 //‰øÆÊîπÊó∂Èó¥Ôºö2014/6/21
//  218 //Â§áÊ≥®ÔºöÊó†
//  219 //******************************
//  220 

        SECTION `.text`:CODE:NOROOT(1)
        THUMB
//  221 void LCD_P6x8Str(uint8 x,uint8 y, uint8 ch[])
//  222 {
LCD_P6x8Str:
        PUSH     {R3-R9,LR}
        MOVS     R4,R0
        MOVS     R5,R1
        MOVS     R6,R2
//  223 	uint8 c = 0, i = 0, j = 0;
        MOVS     R7,#+0
        MOVS     R8,#+0
        MOVS     R9,#+0
//  224 	while(ch[j]!='\0')
??LCD_P6x8Str_0:
        UXTB     R9,R9            ;; ZeroExt  R9,R9,#+24,#+24
        LDRB     R0,[R9, R6]
        CMP      R0,#+0
        BEQ.N    ??LCD_P6x8Str_1
//  225 	{
//  226 		c = ch[j] - 32;
        UXTB     R9,R9            ;; ZeroExt  R9,R9,#+24,#+24
        LDRB     R0,[R9, R6]
        SUBS     R0,R0,#+32
        MOVS     R7,R0
//  227 		if(x > 126)
        UXTB     R4,R4            ;; ZeroExt  R4,R4,#+24,#+24
        CMP      R4,#+127
        BLT.N    ??LCD_P6x8Str_2
//  228 		{
//  229 			x = 0;
        MOVS     R0,#+0
        MOVS     R4,R0
//  230 			y++;
        ADDS     R5,R5,#+1
//  231 		}
//  232 		LCD_Set_Pos(x, y);
??LCD_P6x8Str_2:
        MOVS     R1,R5
        UXTB     R1,R1            ;; ZeroExt  R1,R1,#+24,#+24
        MOVS     R0,R4
        UXTB     R0,R0            ;; ZeroExt  R0,R0,#+24,#+24
        BL       LCD_Set_Pos
//  233 		for(i = 0;i < 6;i++)
        MOVS     R0,#+0
        MOV      R8,R0
??LCD_P6x8Str_3:
        UXTB     R8,R8            ;; ZeroExt  R8,R8,#+24,#+24
        CMP      R8,#+6
        BGE.N    ??LCD_P6x8Str_4
//  234 		{
//  235 			LCD_WrDat(F6x8[c][i]);
        LDR.W    R0,??DataTable3_3
        UXTB     R7,R7            ;; ZeroExt  R7,R7,#+24,#+24
        MOVS     R1,#+6
        MLA      R0,R1,R7,R0
        UXTB     R8,R8            ;; ZeroExt  R8,R8,#+24,#+24
        LDRB     R0,[R8, R0]
        BL       LCD_WrDat
//  236 		}
        ADDS     R8,R8,#+1
        B.N      ??LCD_P6x8Str_3
//  237 		x+=6;
??LCD_P6x8Str_4:
        ADDS     R4,R4,#+6
//  238 		j++;
        ADDS     R9,R9,#+1
        B.N      ??LCD_P6x8Str_0
//  239 	}
//  240 }
??LCD_P6x8Str_1:
        POP      {R0,R4-R9,PC}    ;; return
//  241 
//  242 //******************************
//  243 //ÂäüËÉΩËØ¥ÊòéÔºöÊòæÁ§∫8*16‰∏ÄÁªÑÊ†áÂáÜASCIIÂ≠óÁ¨¶‰∏≤
//  244 //ÂèÇÊï∞ËØ¥ÊòéÔºöÊòæÁ§∫ÁöÑÂùêÊ†áÔºàx,yÔºâÔºåy‰∏∫È°µËåÉÂõ¥0ÔΩû7
//  245 //ÂáΩÊï∞ËøîÂõûÔºöÊó†
//  246 //‰øÆÊîπÊó∂Èó¥Ôºö2014/6/21
//  247 //Â§áÊ≥®ÔºöÊó†
//  248 //******************************

        SECTION `.text`:CODE:NOROOT(1)
        THUMB
//  249 void LCD_P8x16Str(uint8 x,uint8 y, uint8 ch[])
//  250 {
LCD_P8x16Str:
        PUSH     {R3-R9,LR}
        MOVS     R4,R0
        MOVS     R5,R1
        MOVS     R6,R2
//  251 	uint8 c = 0, i = 0, j = 0;
        MOVS     R7,#+0
        MOVS     R8,#+0
        MOVS     R9,#+0
//  252 	while(ch[j]!='\0')
??LCD_P8x16Str_0:
        UXTB     R9,R9            ;; ZeroExt  R9,R9,#+24,#+24
        LDRB     R0,[R9, R6]
        CMP      R0,#+0
        BEQ.N    ??LCD_P8x16Str_1
//  253 	{
//  254 		c = ch[j] - 32;
        UXTB     R9,R9            ;; ZeroExt  R9,R9,#+24,#+24
        LDRB     R0,[R9, R6]
        SUBS     R0,R0,#+32
        MOVS     R7,R0
//  255 		if(x > 126)
        UXTB     R4,R4            ;; ZeroExt  R4,R4,#+24,#+24
        CMP      R4,#+127
        BLT.N    ??LCD_P8x16Str_2
//  256 		{
//  257 			x = 0;
        MOVS     R0,#+0
        MOVS     R4,R0
//  258 			y++;
        ADDS     R5,R5,#+1
//  259 		}
//  260 		LCD_Set_Pos(x, y);
??LCD_P8x16Str_2:
        MOVS     R1,R5
        UXTB     R1,R1            ;; ZeroExt  R1,R1,#+24,#+24
        MOVS     R0,R4
        UXTB     R0,R0            ;; ZeroExt  R0,R0,#+24,#+24
        BL       LCD_Set_Pos
//  261 		for(i = 0;i < 8;i++)
        MOVS     R0,#+0
        MOV      R8,R0
??LCD_P8x16Str_3:
        UXTB     R8,R8            ;; ZeroExt  R8,R8,#+24,#+24
        CMP      R8,#+8
        BGE.N    ??LCD_P8x16Str_4
//  262 		{
//  263 			LCD_WrDat(F8x16[i+c*16]);
        LDR.W    R0,??DataTable3_4
        UXTB     R7,R7            ;; ZeroExt  R7,R7,#+24,#+24
        LSLS     R1,R7,#+4
        UXTAB    R1,R1,R8
        LDRB     R0,[R1, R0]
        BL       LCD_WrDat
//  264 		}
        ADDS     R8,R8,#+1
        B.N      ??LCD_P8x16Str_3
//  265 		LCD_Set_Pos(x,y+1); 
??LCD_P8x16Str_4:
        ADDS     R1,R5,#+1
        UXTB     R1,R1            ;; ZeroExt  R1,R1,#+24,#+24
        MOVS     R0,R4
        UXTB     R0,R0            ;; ZeroExt  R0,R0,#+24,#+24
        BL       LCD_Set_Pos
//  266 		for(i = 0;i < 8;i++)
        MOVS     R0,#+0
        MOV      R8,R0
??LCD_P8x16Str_5:
        UXTB     R8,R8            ;; ZeroExt  R8,R8,#+24,#+24
        CMP      R8,#+8
        BGE.N    ??LCD_P8x16Str_6
//  267 		{
//  268 			LCD_WrDat(F8x16[i+8+c*16]);
        LDR.W    R0,??DataTable3_4
        UXTB     R7,R7            ;; ZeroExt  R7,R7,#+24,#+24
        LSLS     R1,R7,#+4
        UXTAB    R1,R1,R8
        ADDS     R0,R1,R0
        LDRB     R0,[R0, #+8]
        BL       LCD_WrDat
//  269 		}
        ADDS     R8,R8,#+1
        B.N      ??LCD_P8x16Str_5
//  270 		x+=8;
??LCD_P8x16Str_6:
        ADDS     R4,R4,#+8
//  271 		j++;
        ADDS     R9,R9,#+1
        B.N      ??LCD_P8x16Str_0
//  272 	}
//  273 }
??LCD_P8x16Str_1:
        POP      {R0,R4-R9,PC}    ;; return
//  274 
//  275 //******************************
//  276 //ÂäüËÉΩËØ¥ÊòéÔºöÊòæÁ§∫16*16ÁÇπÈòµ
//  277 //ÂèÇÊï∞ËØ¥ÊòéÔºöÊòæÁ§∫ÁöÑÂùêÊ†áÔºàx,yÔºâÔºåy‰∏∫È°µËåÉÂõ¥0ÔΩû7
//  278 //ÂáΩÊï∞ËøîÂõûÔºöÊó†
//  279 //‰øÆÊîπÊó∂Èó¥Ôºö2014/6/21
//  280 //Â§áÊ≥®ÔºöÊó†
//  281 //******************************

        SECTION `.text`:CODE:NOROOT(1)
        THUMB
//  282 void LCD_P16x16Ch(uint8 x, uint8 y, uint8 N)
//  283 {
LCD_P16x16Ch:
        PUSH     {R4-R8,LR}
        MOVS     R4,R0
        MOVS     R5,R1
        MOVS     R6,R2
//  284 	uint8 wm = 0;
        MOVS     R8,#+0
//  285 	uint16 adder = 32*N;
        UXTB     R6,R6            ;; ZeroExt  R6,R6,#+24,#+24
        UXTH     R6,R6            ;; ZeroExt  R6,R6,#+16,#+16
        LSLS     R7,R6,#+5
//  286 	LCD_Set_Pos(x, y);
        MOVS     R1,R5
        UXTB     R1,R1            ;; ZeroExt  R1,R1,#+24,#+24
        MOVS     R0,R4
        UXTB     R0,R0            ;; ZeroExt  R0,R0,#+24,#+24
        BL       LCD_Set_Pos
//  287 	for(wm = 0;wm < 16;wm++)
        MOVS     R0,#+0
        MOV      R8,R0
??LCD_P16x16Ch_0:
        UXTB     R8,R8            ;; ZeroExt  R8,R8,#+24,#+24
        CMP      R8,#+16
        BGE.N    ??LCD_P16x16Ch_1
//  288 	{
//  289 		LCD_WrDat(F16x16[adder]);
        LDR.W    R0,??DataTable3_5
        UXTH     R7,R7            ;; ZeroExt  R7,R7,#+16,#+16
        LDRB     R0,[R7, R0]
        BL       LCD_WrDat
//  290 		adder+=1;
        ADDS     R7,R7,#+1
//  291 	}
        ADDS     R8,R8,#+1
        B.N      ??LCD_P16x16Ch_0
//  292 	LCD_Set_Pos(x, y+1);
??LCD_P16x16Ch_1:
        ADDS     R1,R5,#+1
        UXTB     R1,R1            ;; ZeroExt  R1,R1,#+24,#+24
        MOVS     R0,R4
        UXTB     R0,R0            ;; ZeroExt  R0,R0,#+24,#+24
        BL       LCD_Set_Pos
//  293 	for(wm = 0;wm < 16;wm++)
        MOVS     R0,#+0
        MOV      R8,R0
??LCD_P16x16Ch_2:
        UXTB     R8,R8            ;; ZeroExt  R8,R8,#+24,#+24
        CMP      R8,#+16
        BGE.N    ??LCD_P16x16Ch_3
//  294 	{
//  295 		LCD_WrDat(F16x16[adder]);
        LDR.W    R0,??DataTable3_5
        UXTH     R7,R7            ;; ZeroExt  R7,R7,#+16,#+16
        LDRB     R0,[R7, R0]
        BL       LCD_WrDat
//  296 		adder+=1;
        ADDS     R7,R7,#+1
//  297 	}
        ADDS     R8,R8,#+1
        B.N      ??LCD_P16x16Ch_2
//  298 }
??LCD_P16x16Ch_3:
        POP      {R4-R8,PC}       ;; return
//  299 //******************************
//  300 //ÂäüËÉΩËØ¥ÊòéÔºöÊòæÁ§∫ÊòæÁ§∫BMPÂõæÁâá128√ó64Ëµ∑ÂßãÁÇπÂùêÊ†á(x,y)
//  301 //ÂèÇÊï∞ËØ¥ÊòéÔºöÊòæÁ§∫ÁöÑÂùêÊ†áÔºàx,yÔºâÔºåy‰∏∫È°µËåÉÂõ¥0ÔΩû7
//  302 //ÂáΩÊï∞ËøîÂõûÔºöÊó†
//  303 //‰øÆÊîπÊó∂Èó¥Ôºö2014/6/21
//  304 //Â§áÊ≥®ÔºöÊó†
//  305 //******************************

        SECTION `.text`:CODE:NOROOT(1)
        THUMB
//  306 void Draw_BMP(uint8 x0, uint8 y0,uint8 x1,uint8 y1,uint8 BMP[])
//  307 {
Draw_BMP:
        PUSH     {R3-R11,LR}
        MOVS     R4,R0
        MOVS     R5,R1
        MOVS     R6,R2
        MOVS     R7,R3
        LDR      R8,[SP, #+40]
//  308 	uint16 j = 0;
        MOVS     R9,#+0
//  309 	uint8 x, y;
//  310 	if(y1%8 == 0)
        UXTB     R7,R7            ;; ZeroExt  R7,R7,#+24,#+24
        MOVS     R0,#+8
        SDIV     R1,R7,R0
        MLS      R1,R1,R0,R7
        CMP      R1,#+0
        BNE.N    ??Draw_BMP_0
//  311 		y = y1/8;
        UXTB     R7,R7            ;; ZeroExt  R7,R7,#+24,#+24
        MOVS     R0,#+8
        SDIV     R0,R7,R0
        MOV      R11,R0
        B.N      ??Draw_BMP_1
//  312 	else
//  313 		y = y1/8 + 1;
??Draw_BMP_0:
        UXTB     R7,R7            ;; ZeroExt  R7,R7,#+24,#+24
        MOVS     R0,#+8
        SDIV     R0,R7,R0
        ADDS     R0,R0,#+1
        MOV      R11,R0
//  314 	for(y = y0;y < y1;y++)
??Draw_BMP_1:
        MOV      R11,R5
??Draw_BMP_2:
        UXTB     R11,R11          ;; ZeroExt  R11,R11,#+24,#+24
        UXTB     R7,R7            ;; ZeroExt  R7,R7,#+24,#+24
        CMP      R11,R7
        BCS.N    ??Draw_BMP_3
//  315 	{
//  316 		LCD_Set_Pos(x0, y);
        MOV      R1,R11
        UXTB     R1,R1            ;; ZeroExt  R1,R1,#+24,#+24
        MOVS     R0,R4
        UXTB     R0,R0            ;; ZeroExt  R0,R0,#+24,#+24
        BL       LCD_Set_Pos
//  317 		for(x = x0;x < x1;x++)
        MOV      R10,R4
??Draw_BMP_4:
        UXTB     R10,R10          ;; ZeroExt  R10,R10,#+24,#+24
        UXTB     R6,R6            ;; ZeroExt  R6,R6,#+24,#+24
        CMP      R10,R6
        BCS.N    ??Draw_BMP_5
//  318 			LCD_WrDat(BMP[j++]);
        UXTH     R9,R9            ;; ZeroExt  R9,R9,#+16,#+16
        LDRB     R0,[R9, R8]
        BL       LCD_WrDat
        ADDS     R9,R9,#+1
        ADDS     R10,R10,#+1
        B.N      ??Draw_BMP_4
//  319 	}
??Draw_BMP_5:
        ADDS     R11,R11,#+1
        B.N      ??Draw_BMP_2
//  320 }
??Draw_BMP_3:
        POP      {R0,R4-R11,PC}   ;; return
//  321 
//  322 
//  323 
//  324 
//  325 
//  326 
//  327 
//  328 
//  329 
//  330 

        SECTION `.bss`:DATA:REORDER:NOROOT(2)
//  331 uint8 str[80];
`str`:
        DS8 80

        SECTION `.bss`:DATA:REORDER:NOROOT(2)
//  332 int LCD_Flag;
LCD_Flag:
        DS8 4

        SECTION `.text`:CODE:NOROOT(1)
        THUMB
//  333 void ParmAdjust(void)
//  334 {
ParmAdjust:
        PUSH     {R7,LR}
//  335   LCD_P8x16Str(0,0,"    HEU-FLASH   ");
        LDR.N    R2,??DataTable3_6
        MOVS     R1,#+0
        MOVS     R0,#+0
        BL       LCD_P8x16Str
//  336 
//  337 
//  338  while(1)
//  339  {
//  340   if(!gpio_get(PTA27))       //‰∏ä
??ParmAdjust_0:
        MOVS     R0,#+27
        BL       gpio_get
        CMP      R0,#+0
        BNE.N    ??ParmAdjust_1
//  341   {
//  342    LCD_Flag++;
        LDR.N    R0,??DataTable3_7
        LDR      R0,[R0, #+0]
        ADDS     R0,R0,#+1
        LDR.N    R1,??DataTable3_7
        STR      R0,[R1, #+0]
//  343    DELAY_MS(200);
        MOVS     R0,#+200
        BL       systick_delay_ms
//  344   }
//  345   if(!gpio_get(PTA25))       //‰∏ã
??ParmAdjust_1:
        MOVS     R0,#+25
        BL       gpio_get
        CMP      R0,#+0
        BNE.N    ??ParmAdjust_2
//  346   {
//  347    LCD_Flag--;
        LDR.N    R0,??DataTable3_7
        LDR      R0,[R0, #+0]
        SUBS     R0,R0,#+1
        LDR.N    R1,??DataTable3_7
        STR      R0,[R1, #+0]
//  348    DELAY_MS(200);
        MOVS     R0,#+200
        BL       systick_delay_ms
//  349   }
//  350   if(LCD_Flag > 4)
??ParmAdjust_2:
        LDR.N    R0,??DataTable3_7
        LDR      R0,[R0, #+0]
        CMP      R0,#+5
        BLT.N    ??ParmAdjust_3
//  351   {
//  352    LCD_Flag = 0;
        MOVS     R0,#+0
        LDR.N    R1,??DataTable3_7
        STR      R0,[R1, #+0]
//  353   }
//  354   if(LCD_Flag < 0)
??ParmAdjust_3:
        LDR.N    R0,??DataTable3_7
        LDR      R0,[R0, #+0]
        CMP      R0,#+0
        BPL.N    ??ParmAdjust_4
//  355   {
//  356    LCD_Flag = 4;
        MOVS     R0,#+4
        LDR.N    R1,??DataTable3_7
        STR      R0,[R1, #+0]
//  357   }
//  358   
//  359    switch(LCD_Flag)
??ParmAdjust_4:
        LDR.N    R0,??DataTable3_7
        LDR      R0,[R0, #+0]
        CMP      R0,#+0
        BEQ.N    ??ParmAdjust_5
        CMP      R0,#+2
        BEQ.N    ??ParmAdjust_6
        BCC.N    ??ParmAdjust_7
        CMP      R0,#+4
        BEQ.N    ??ParmAdjust_8
        BCC.N    ??ParmAdjust_9
        B.N      ??ParmAdjust_10
//  360    {
//  361 	case 0:{LCD_P6x8Str(82,3,"=");
??ParmAdjust_5:
        ADR.N    R2,??DataTable3  ;; "="
        MOVS     R1,#+3
        MOVS     R0,#+82
        BL       LCD_P6x8Str
//  362 	        LCD_P6x8Str(82,4," ");
        ADR.N    R2,??DataTable3_1  ;; " "
        MOVS     R1,#+4
        MOVS     R0,#+82
        BL       LCD_P6x8Str
//  363                 LCD_P6x8Str(82,5," ");
        ADR.N    R2,??DataTable3_1  ;; " "
        MOVS     R1,#+5
        MOVS     R0,#+82
        BL       LCD_P6x8Str
//  364                 LCD_P6x8Str(82,6," ");
        ADR.N    R2,??DataTable3_1  ;; " "
        MOVS     R1,#+6
        MOVS     R0,#+82
        BL       LCD_P6x8Str
//  365                 LCD_P6x8Str(82,7," ");
        ADR.N    R2,??DataTable3_1  ;; " "
        MOVS     R1,#+7
        MOVS     R0,#+82
        BL       LCD_P6x8Str
//  366                 
//  367 	        break;}
        B.N      ??ParmAdjust_11
//  368         case 1:{LCD_P6x8Str(82,3," ");
??ParmAdjust_7:
        ADR.N    R2,??DataTable3_1  ;; " "
        MOVS     R1,#+3
        MOVS     R0,#+82
        BL       LCD_P6x8Str
//  369 	        LCD_P6x8Str(82,4,"=");
        ADR.N    R2,??DataTable3  ;; "="
        MOVS     R1,#+4
        MOVS     R0,#+82
        BL       LCD_P6x8Str
//  370                 LCD_P6x8Str(82,5," ");
        ADR.N    R2,??DataTable3_1  ;; " "
        MOVS     R1,#+5
        MOVS     R0,#+82
        BL       LCD_P6x8Str
//  371                 LCD_P6x8Str(82,6," ");
        ADR.N    R2,??DataTable3_1  ;; " "
        MOVS     R1,#+6
        MOVS     R0,#+82
        BL       LCD_P6x8Str
//  372                 LCD_P6x8Str(82,7," "); 
        ADR.N    R2,??DataTable3_1  ;; " "
        MOVS     R1,#+7
        MOVS     R0,#+82
        BL       LCD_P6x8Str
//  373 	        break;}
        B.N      ??ParmAdjust_11
//  374         case 2:{LCD_P6x8Str(82,3," ");
??ParmAdjust_6:
        ADR.N    R2,??DataTable3_1  ;; " "
        MOVS     R1,#+3
        MOVS     R0,#+82
        BL       LCD_P6x8Str
//  375 	        LCD_P6x8Str(82,4," ");
        ADR.N    R2,??DataTable3_1  ;; " "
        MOVS     R1,#+4
        MOVS     R0,#+82
        BL       LCD_P6x8Str
//  376                 LCD_P6x8Str(82,5,"=");
        ADR.N    R2,??DataTable3  ;; "="
        MOVS     R1,#+5
        MOVS     R0,#+82
        BL       LCD_P6x8Str
//  377                 LCD_P6x8Str(82,6," ");
        ADR.N    R2,??DataTable3_1  ;; " "
        MOVS     R1,#+6
        MOVS     R0,#+82
        BL       LCD_P6x8Str
//  378                 LCD_P6x8Str(82,7," "); 
        ADR.N    R2,??DataTable3_1  ;; " "
        MOVS     R1,#+7
        MOVS     R0,#+82
        BL       LCD_P6x8Str
//  379 	        break;}
        B.N      ??ParmAdjust_11
//  380         case 3:{LCD_P6x8Str(82,3," ");
??ParmAdjust_9:
        ADR.N    R2,??DataTable3_1  ;; " "
        MOVS     R1,#+3
        MOVS     R0,#+82
        BL       LCD_P6x8Str
//  381 	        LCD_P6x8Str(82,4," ");
        ADR.N    R2,??DataTable3_1  ;; " "
        MOVS     R1,#+4
        MOVS     R0,#+82
        BL       LCD_P6x8Str
//  382                 LCD_P6x8Str(82,5," ");
        ADR.N    R2,??DataTable3_1  ;; " "
        MOVS     R1,#+5
        MOVS     R0,#+82
        BL       LCD_P6x8Str
//  383                 LCD_P6x8Str(82,6,"=");
        ADR.N    R2,??DataTable3  ;; "="
        MOVS     R1,#+6
        MOVS     R0,#+82
        BL       LCD_P6x8Str
//  384                 LCD_P6x8Str(82,7," "); 
        ADR.N    R2,??DataTable3_1  ;; " "
        MOVS     R1,#+7
        MOVS     R0,#+82
        BL       LCD_P6x8Str
//  385 	        break;}
        B.N      ??ParmAdjust_11
//  386         case 4:{LCD_P6x8Str(82,3," ");
??ParmAdjust_8:
        ADR.N    R2,??DataTable3_1  ;; " "
        MOVS     R1,#+3
        MOVS     R0,#+82
        BL       LCD_P6x8Str
//  387 	        LCD_P6x8Str(82,4," ");
        ADR.N    R2,??DataTable3_1  ;; " "
        MOVS     R1,#+4
        MOVS     R0,#+82
        BL       LCD_P6x8Str
//  388                 LCD_P6x8Str(82,5," ");
        ADR.N    R2,??DataTable3_1  ;; " "
        MOVS     R1,#+5
        MOVS     R0,#+82
        BL       LCD_P6x8Str
//  389                 LCD_P6x8Str(82,6," ");
        ADR.N    R2,??DataTable3_1  ;; " "
        MOVS     R1,#+6
        MOVS     R0,#+82
        BL       LCD_P6x8Str
//  390                 LCD_P6x8Str(82,7,"="); 
        ADR.N    R2,??DataTable3  ;; "="
        MOVS     R1,#+7
        MOVS     R0,#+82
        BL       LCD_P6x8Str
//  391                 break;}
        B.N      ??ParmAdjust_11
//  392         default:break;
//  393    }
//  394    
//  395    if(!gpio_get(PTD0))
??ParmAdjust_10:
??ParmAdjust_11:
        MOVS     R0,#+96
        BL       gpio_get
        CMP      R0,#+0
        BNE.N    ??ParmAdjust_12
//  396    {
//  397 	DELAY_MS(200);
        MOVS     R0,#+200
        BL       systick_delay_ms
//  398 	switch(LCD_Flag)
        LDR.N    R0,??DataTable3_7
        LDR      R0,[R0, #+0]
        CMP      R0,#+0
        BEQ.N    ??ParmAdjust_13
        CMP      R0,#+2
        BEQ.N    ??ParmAdjust_14
        CMP      R0,#+3
        BEQ.N    ??ParmAdjust_15
        CMP      R0,#+4
        BEQ.N    ??ParmAdjust_16
        B.N      ??ParmAdjust_17
//  399 	{
//  400 	 case 0: SpeedWant += 10;break;
??ParmAdjust_13:
        LDR.N    R0,??DataTable3_8
        LDR      R0,[R0, #+0]
        ADDS     R0,R0,#+10
        LDR.N    R1,??DataTable3_8
        STR      R0,[R1, #+0]
        B.N      ??ParmAdjust_12
//  401 	 case 2: Speed_Kp   += 1 ; break;
??ParmAdjust_14:
        LDR.N    R0,??DataTable3_9
        LDR      R0,[R0, #+0]
        ADDS     R0,R0,#+1
        LDR.N    R1,??DataTable3_9
        STR      R0,[R1, #+0]
        B.N      ??ParmAdjust_12
//  402 	 case 3: Speed_Ki   += 1 ; break;
??ParmAdjust_15:
        LDR.N    R0,??DataTable3_10
        LDR      R0,[R0, #+0]
        ADDS     R0,R0,#+1
        LDR.N    R1,??DataTable3_10
        STR      R0,[R1, #+0]
        B.N      ??ParmAdjust_12
//  403          case 4: Speed_Kd   += 1 ; break;
??ParmAdjust_16:
        LDR.N    R0,??DataTable3_11
        LDR      R0,[R0, #+0]
        ADDS     R0,R0,#+1
        LDR.N    R1,??DataTable3_11
        STR      R0,[R1, #+0]
        B.N      ??ParmAdjust_12
//  404 	 default:  break;
//  405 	}
//  406    }
//  407    if(!gpio_get(PTA24))
??ParmAdjust_17:
??ParmAdjust_12:
        MOVS     R0,#+24
        BL       gpio_get
        CMP      R0,#+0
        BNE.N    ??ParmAdjust_18
//  408    {
//  409 	DELAY_MS(200);
        MOVS     R0,#+200
        BL       systick_delay_ms
//  410 	switch(LCD_Flag)
        LDR.N    R0,??DataTable3_7
        LDR      R0,[R0, #+0]
        CMP      R0,#+0
        BEQ.N    ??ParmAdjust_19
        CMP      R0,#+2
        BEQ.N    ??ParmAdjust_20
        CMP      R0,#+3
        BEQ.N    ??ParmAdjust_21
        CMP      R0,#+4
        BEQ.N    ??ParmAdjust_22
        B.N      ??ParmAdjust_23
//  411 	{
//  412 	 case 0: SpeedWant -= 10;break;
??ParmAdjust_19:
        LDR.N    R0,??DataTable3_8
        LDR      R0,[R0, #+0]
        SUBS     R0,R0,#+10
        LDR.N    R1,??DataTable3_8
        STR      R0,[R1, #+0]
        B.N      ??ParmAdjust_18
//  413 	 case 2: Speed_Kp   -= 1 ; break;
??ParmAdjust_20:
        LDR.N    R0,??DataTable3_9
        LDR      R0,[R0, #+0]
        SUBS     R0,R0,#+1
        LDR.N    R1,??DataTable3_9
        STR      R0,[R1, #+0]
        B.N      ??ParmAdjust_18
//  414 	 case 3: Speed_Ki   -= 1 ; break;
??ParmAdjust_21:
        LDR.N    R0,??DataTable3_10
        LDR      R0,[R0, #+0]
        SUBS     R0,R0,#+1
        LDR.N    R1,??DataTable3_10
        STR      R0,[R1, #+0]
        B.N      ??ParmAdjust_18
//  415          case 4: Speed_Kd   -= 1 ; break;         
??ParmAdjust_22:
        LDR.N    R0,??DataTable3_11
        LDR      R0,[R0, #+0]
        SUBS     R0,R0,#+1
        LDR.N    R1,??DataTable3_11
        STR      R0,[R1, #+0]
        B.N      ??ParmAdjust_18
//  416          default:  break;
//  417 	}
//  418    }
//  419    LCD_P6x8Str(0,3,"SpeedWant ");
??ParmAdjust_23:
??ParmAdjust_18:
        LDR.N    R2,??DataTable3_12
        MOVS     R1,#+3
        MOVS     R0,#+0
        BL       LCD_P6x8Str
//  420 
//  421    LCD_P6x8Str(0,5,"Speed_Kp");
        LDR.N    R2,??DataTable3_13
        MOVS     R1,#+5
        MOVS     R0,#+0
        BL       LCD_P6x8Str
//  422    LCD_P6x8Str(0,6,"Speed_Ki");
        LDR.N    R2,??DataTable3_14
        MOVS     R1,#+6
        MOVS     R0,#+0
        BL       LCD_P6x8Str
//  423    LCD_P6x8Str(0,7,"Speed_Kd");
        LDR.N    R2,??DataTable3_15
        MOVS     R1,#+7
        MOVS     R0,#+0
        BL       LCD_P6x8Str
//  424    
//  425    sprintf(str,"%6d",SpeedWant);
        LDR.N    R0,??DataTable3_8
        LDR      R2,[R0, #+0]
        ADR.N    R1,??DataTable3_2  ;; "%6d"
        LDR.N    R0,??DataTable3_16
        BL       sprintf
//  426    LCD_P6x8Str(90,3,str);
        LDR.N    R2,??DataTable3_16
        MOVS     R1,#+3
        MOVS     R0,#+90
        BL       LCD_P6x8Str
//  427 
//  428    sprintf(str,"%6d",(long)Speed_Kp);
        LDR.N    R0,??DataTable3_9
        LDR      R2,[R0, #+0]
        ADR.N    R1,??DataTable3_2  ;; "%6d"
        LDR.N    R0,??DataTable3_16
        BL       sprintf
//  429    LCD_P6x8Str(90,5,str);
        LDR.N    R2,??DataTable3_16
        MOVS     R1,#+5
        MOVS     R0,#+90
        BL       LCD_P6x8Str
//  430    sprintf(str,"%6d",(long)Speed_Ki);
        LDR.N    R0,??DataTable3_10
        LDR      R2,[R0, #+0]
        ADR.N    R1,??DataTable3_2  ;; "%6d"
        LDR.N    R0,??DataTable3_16
        BL       sprintf
//  431    LCD_P6x8Str(90,6,str);
        LDR.N    R2,??DataTable3_16
        MOVS     R1,#+6
        MOVS     R0,#+90
        BL       LCD_P6x8Str
//  432    sprintf(str,"%6d",(long)Speed_Kd);
        LDR.N    R0,??DataTable3_11
        LDR      R2,[R0, #+0]
        ADR.N    R1,??DataTable3_2  ;; "%6d"
        LDR.N    R0,??DataTable3_16
        BL       sprintf
//  433    LCD_P6x8Str(90,7,str);
        LDR.N    R2,??DataTable3_16
        MOVS     R1,#+7
        MOVS     R0,#+90
        BL       LCD_P6x8Str
//  434    
//  435   if(!gpio_get(PTA26))
        MOVS     R0,#+26
        BL       gpio_get
        CMP      R0,#+0
        BNE.W    ??ParmAdjust_0
//  436   {
//  437     LCD_CLS();
        BL       LCD_CLS
//  438     DELAY_MS(500);
        MOV      R0,#+500
        BL       systick_delay_ms
//  439     //FlashSetPara();
//  440     break;
//  441   }
//  442   
//  443   
//  444  
//  445  }
//  446 
//  447 }
        POP      {R0,PC}          ;; return

        SECTION `.text`:CODE:NOROOT(2)
        SECTION_TYPE SHT_PROGBITS, 0
        DATA
??DataTable3:
        DC8      "=",0x0,0x0

        SECTION `.text`:CODE:NOROOT(2)
        SECTION_TYPE SHT_PROGBITS, 0
        DATA
??DataTable3_1:
        DC8      " ",0x0,0x0

        SECTION `.text`:CODE:NOROOT(2)
        SECTION_TYPE SHT_PROGBITS, 0
        DATA
??DataTable3_2:
        DC8      "%6d"

        SECTION `.text`:CODE:NOROOT(2)
        SECTION_TYPE SHT_PROGBITS, 0
        DATA
??DataTable3_3:
        DC32     F6x8

        SECTION `.text`:CODE:NOROOT(2)
        SECTION_TYPE SHT_PROGBITS, 0
        DATA
??DataTable3_4:
        DC32     F8x16

        SECTION `.text`:CODE:NOROOT(2)
        SECTION_TYPE SHT_PROGBITS, 0
        DATA
??DataTable3_5:
        DC32     F16x16

        SECTION `.text`:CODE:NOROOT(2)
        SECTION_TYPE SHT_PROGBITS, 0
        DATA
??DataTable3_6:
        DC32     ?_0

        SECTION `.text`:CODE:NOROOT(2)
        SECTION_TYPE SHT_PROGBITS, 0
        DATA
??DataTable3_7:
        DC32     LCD_Flag

        SECTION `.text`:CODE:NOROOT(2)
        SECTION_TYPE SHT_PROGBITS, 0
        DATA
??DataTable3_8:
        DC32     SpeedWant

        SECTION `.text`:CODE:NOROOT(2)
        SECTION_TYPE SHT_PROGBITS, 0
        DATA
??DataTable3_9:
        DC32     Speed_Kp

        SECTION `.text`:CODE:NOROOT(2)
        SECTION_TYPE SHT_PROGBITS, 0
        DATA
??DataTable3_10:
        DC32     Speed_Ki

        SECTION `.text`:CODE:NOROOT(2)
        SECTION_TYPE SHT_PROGBITS, 0
        DATA
??DataTable3_11:
        DC32     Speed_Kd

        SECTION `.text`:CODE:NOROOT(2)
        SECTION_TYPE SHT_PROGBITS, 0
        DATA
??DataTable3_12:
        DC32     ?_3

        SECTION `.text`:CODE:NOROOT(2)
        SECTION_TYPE SHT_PROGBITS, 0
        DATA
??DataTable3_13:
        DC32     ?_4

        SECTION `.text`:CODE:NOROOT(2)
        SECTION_TYPE SHT_PROGBITS, 0
        DATA
??DataTable3_14:
        DC32     ?_5

        SECTION `.text`:CODE:NOROOT(2)
        SECTION_TYPE SHT_PROGBITS, 0
        DATA
??DataTable3_15:
        DC32     ?_6

        SECTION `.text`:CODE:NOROOT(2)
        SECTION_TYPE SHT_PROGBITS, 0
        DATA
??DataTable3_16:
        DC32     `str`

        SECTION `.iar_vfe_header`:DATA:NOALLOC:NOROOT(2)
        SECTION_TYPE SHT_PROGBITS, 0
        DATA
        DC32 0

        SECTION __DLIB_PERTHREAD:DATA:REORDER:NOROOT(0)
        SECTION_TYPE SHT_PROGBITS, 0

        SECTION __DLIB_PERTHREAD_init:DATA:REORDER:NOROOT(0)
        SECTION_TYPE SHT_PROGBITS, 0

        END
//  448 
// 
//    84 bytes in section .bss
// 2 048 bytes in section .data
// 2 148 bytes in section .rodata
// 2 124 bytes in section .text
// 
// 2 124 bytes of CODE  memory
// 2 148 bytes of CONST memory
// 2 132 bytes of DATA  memory
//
//Errors: none
//Warnings: 4
